c__builtin__
set
p0
((lp1
I1793806
aI1750161
aI1250646
aI524294
aI458759
aI1289489
aI458761
aI838637
aI1185111
aI1126737
aI524303
aI98322
aI1605652
aI1966103
aI884760
aI1671193
aI426010
aI1310750
aI1671200
aI1343521
aI1081378
aI1441828
aI1540135
aI393257
aI491562
aI2129964
aI196653
aI1245231
aI753713
aI491575
aI196664
aI1015865
aI655421
aI753726
aI163903
aI1933377
aI1081411
aI786500
aI1441863
aI1900622
aI632858
aI852051
aI1305273
aI950362
aI32859
aI1474656
aI1835105
aI753762
aI196713
aI2162797
aI721006
aI1376370
aI2048019
aI841065
aI65657
aI1736827
aI1425429
aI1103126
aI1234283
aI1835140
aI426120
aI753801
aI327821
aI1998990
aI628077
aI2261136
aI131096
aI32914
aI1867924
aI1933461
aI884886
aI1163289
aI1837468
aI464239
aI819356
aI819226
aI1212574
aI1638563
aI1314817
aI2064549
aI1573033
aI590000
aI1278130
aI1048755
aI590006
aI1441975
aI458936
aI1212601
aI852154
aI655548
aI1114301
aI1966272
aI360641
aI1310915
aI1147076
aI2250102
aI524487
aI622792
aI1605839
aI1343697
aI721107
aI1114326
aI852184
aI1900762
aI819419
aI819420
aI1081565
aI1704158
aI1982501
aI229600
aI273104
aI1540323
aI2031845
aI1556519
aI884973
aI1217917
aI491760
aI983282
aI884980
aI852215
aI2195706
aI1915577
aI1441834
aI393470
aI1474815
aI229632
aI1147138
aI426245
aI1376522
aI262411
aI1966349
aI295182
aI295183
aI229649
aI1671442
aI1212694
aI1573145
aI1802525
aI1507614
aI1868065
aI1212706
aI98595
aI33060
aI28379
aI1807751
aI327980
aI1245485
aI2064687
aI426289
aI1999156
aI387806
aI1480073
aI164153
aI1933626
aI1977138
aI1633413
aI2326849
aI2261315
aI131397
aI87436
aI1966411
aI2097484
aI131405
aI2031952
aI994019
aI65876
aI786775
aI557401
aI229724
aI1392698
aI1278303
aI1474912
aI131425
aI557410
aI1474915
aI131428
aI2163045
aI950630
aI393575
aI360808
aI924199
aI328046
aI852340
aI229750
aI1900921
aI1070411
aI590206
aI229763
aI786820
aI754053
aI2163078
aI1376647
aI228708
aI229774
aI1037720
aI721300
aI1817836
aI1900612
aI754075
aI1474972
aI1413027
aI1540512
aI1180065
aI1343906
aI1147299
aI98725
aI931839
aI1868201
aI2261422
aI983471
aI1900976
aI983473
aI2229193
aI1376692
aI546207
aI606683
aI295360
aI1475010
aI1606083
aI1501942
aI1311174
aI116753
aI1081801
aI983502
aI426447
aI1769936
aI229842
aI557524
aI1355199
aI1999318
aI344143
aI1573341
aI885215
aI819686
aI1606121
aI1933812
aI782993
aI983543
aI1606140
aI1931317
aI950782
aI360961
aI819714
aI1573380
aI524805
aI1311239
aI1245704
aI393737
aI328202
aI1310807
aI1534722
aI1901071
aI2097685
aI2140932
aI2317578
aI2115719
aI1081885
aI543
aI1119664
aI1147426
aI1086897
aI688681
aI1999406
aI1344048
aI1081905
aI1933874
aI1802805
aI131640
aI1573434
aI426557
aI557630
aI131647
aI1376835
aI2332086
aI1310817
aI1376842
aI1594807
aI1704526
aI862989
aI593
aI2196050
aI1540694
aI1639001
aI1311324
aI1180253
aI918110
aI1213023
aI623201
aI754275
aI1770084
aI1687654
aI1606248
aI2130539
aI620
aI2228847
aI918128
aI1901172
aI1114741
aI2006609
aI1573498
aI1365439
aI1999484
aI1901181
aI393854
aI1540735
aI2228864
aI1933954
aI131717
aI2065030
aI1540746
aI633623
aI1966733
aI983695
aI1540754
aI1245843
aI492180
aI688238
aI1344150
aI1813274
aI2261662
aI2130592
aI1687664
aI819876
aI300486
aI983719
aI918185
aI197290
aI2327212
aI918190
aI1639088
aI33458
aI557749
aI1573558
aI1671865
aI1016509
aI131782
aI1746456
aI66249
aI2130636
aI721613
aI295631
aI2032337
aI2206499
aI623318
aI230103
aI1213145
aI590557
aI1021392
aI901298
aI1245928
aI623337
aI2065133
aI2115726
aI1278703
aI1639153
aI2032370
aI629607
aI262901
aI2196214
aI644564
aI525052
aI1171899
aI1671934
aI2348501
aI885505
aI1770248
aI2163466
aI918284
aI1311501
aI1639185
aI590618
aI2026287
aI1003866
aI2196253
aI1737502
aI994096
aI754470
aI2163498
aI2123366
aI2163505
aI525106
aI251358
aI1835830
aI262967
aI688952
aI1803066
aI2130747
aI885565
aI492350
aI623425
aI525125
aI1889761
aI1278795
aI557900
aI2261837
aI623438
aI787280
aI66385
aI525140
aI1573722
aI295774
aI525151
aI99168
aI721761
aI1873499
aI361315
aI1442660
aI1966949
aI1868646
aI820071
aI2098024
aI76604
aI492394
aI394091
aI263020
aI1868658
aI33652
aI886
aI1901431
aI2206688
aI295801
aI1934202
aI1311614
aI1147775
aI275187
aI557953
aI131970
aI1529323
aI1934212
aI360598
aI295815
aI1594699
aI84047
aI689035
aI671896
aI1049490
aI915
aI2065300
aI76612
aI983962
aI426907
aI656285
aI33696
aI2149557
aI603397
aI820131
aI1868708
aI721829
aI1737640
aI1508265
aI361388
aI99245
aI2163630
aI525231
aI1508272
aI983986
aI361395
aI1967030
aI99255
aI2327480
aI2163641
aI918458
aI754620
aI197566
aI2090637
aI33730
aI1672131
aI1508292
aI2294725
aI1704902
aI2196425
aI394187
aI2163660
aI1311695
aI1410001
aI1606610
aI1917091
aI1475540
aI2321230
aI918487
aI558041
aI558044
aI99293
aI1115103
aI2294752
aI1410019
aI1278950
aI1862481
aI623592
aI2065387
aI394222
aI689136
aI224083
aI1508340
aI447998
aI590839
aI1606649
aI1512959
aI1836028
aI295933
aI1344510
aI1387349
aI1967104
aI361473
aI1901573
aI997327
aI427015
aI1622188
aI1878871
aI1049667
aI525325
aI1934350
aI1868817
aI1770515
aI459796
aI2234669
aI99350
aI2130968
aI492569
aI345923
aI1125210
aI1082400
aI1999024
aI1600347
aI1344548
aI1442853
aI1737766
aI1180713
aI525355
aI295980
aI393394
aI361520
aI1901617
aI737459
aI2130996
aI964867
aI1442872
aI66619
aI497163
aI1934408
aI1115211
aI1100
aI1016910
aI1283597
aI853072
aI1934426
aI1999963
aI623711
aI1148000
aI1250832
aI590946
aI573627
aI689254
aI251409
aI99433
aI2032747
aI1803372
aI2064573
aI1999984
aI2032753
aI459891
aI1351859
aI1803387
aI590973
aI590975
aI1818816
aI1829739
aI1574020
aI197765
aI132231
aI2131080
aI722058
aI1578519
aI656524
aI699245
aI349720
aI1115282
aI32963
aI558229
aI820374
aI2327703
aI459933
aI820384
aI1682288
aI361635
aI263334
aI328871
aI1934504
aI1682290
aI1103389
aI1900744
aI1639602
aI263347
aI525494
aI1901752
aI132281
aI2065596
aI33982
aI885956
aI328902
aI656584
aI1836233
aI361679
aI731098
aI1377490
aI1049811
aI459991
aI1934553
aI1803484
aI263390
aI492768
aI2032867
aI2032868
aI1311973
aI2163942
aI1311975
aI34025
aI328939
aI737490
aI1639663
aI2163952
aI1070632
aI1410290
aI1869044
aI1705206
aI460025
aI1541372
aI775722
aI951550
aI1770751
aI1128271
aI267819
aI1115397
aI689415
aI2098440
aI2327820
aI1869069
aI1312014
aI2135597
aI2131217
aI2295061
aI1148184
aI43908
aI2065691
aI2065692
aI295130
aI492830
aI99615
aI820512
aI1410339
aI66855
aI2229545
aI1344812
aI1508653
aI591150
aI1738033
aI918835
aI984373
aI886071
aI1246521
aI951614
aI1349173
aI557280
aI1207179
aI438679
aI1803589
aI803041
aI853320
aI1377609
aI1967434
aI722251
aI361804
aI2196813
aI535437
aI329041
aI460116
aI1541462
aI759353
aI558424
aI1229028
aI2229594
aI492891
aI165212
aI427358
aI688357
aI1377633
aI54843
aI492901
aI34151
aI296297
aI2164075
aI1508718
aI361839
aI984432
aI1541490
aI492916
aI2164087
aI427385
aI34170
aI1026965
aI1508736
aI488873
aI460162
aI787844
aI2196869
aI722311
aI570708
aI1705355
aI820622
aI2033039
aI1803664
aI722322
aI361875
aI394644
aI99733
aI427414
aI394647
aI1639832
aI218692
aI1836445
aI2130160
aI1934755
aI1705382
aI198057
aI296362
aI165291
aI394668
aI361901
aI1410478
aI1967535
aI1443248
aI1377714
aI1508787
aI1797022
aI1607095
aI1048820
aI2065851
aI1410492
aI1103434
aI361919
aI198080
aI1410497
aI1381963
aI525765
aI558534
aI918984
aI99785
aI1835255
aI1312204
aI591310
aI1541585
aI1849245
aI1664023
aI2091746
aI1836506
aI1213915
aI198108
aI853471
aI2295265
aI1803746
aI2273656
aI1902054
aI229628
aI1574379
aI987258
aI1443311
aI1698728
aI1877549
aI1377782
aI1928105
aI1672696
aI759380
aI361979
aI263677
aI2131454
aI824899
aI1672706
aI1540
aI1082887
aI2295306
aI2268673
aI2098705
aI1082899
aI591381
aI525846
aI1564
aI1508894
aI1966341
aI951840
aI1477609
aI1218139
aI1092827
aI1059761
aI1082920
aI394793
aI82183
aI2328108
aI516157
aI999479
aI329264
aI34354
aI1485747
aI1591
aI1443386
aI1628019
aI1671434
aI2229823
aI1869377
aI1474827
aI1279556
aI394821
aI132678
aI1489446
aI1906274
aI1050191
aI2229840
aI2164305
aI429959
aI786702
aI34391
aI1476184
aI2098777
aI1148507
aI1901838
aI1190842
aI1967712
aI2033250
aI34405
aI99943
aI1050217
aI165482
aI165483
aI2328172
aI1114386
aI420797
aI1148530
aI1508980
aI2098806
aI1050231
aI329337
aI198266
aI296572
aI1771133
aI1017472
aI1640066
aI2000518
aI1508999
aI1673
aI2033290
aI1640076
aI2010050
aI886415
aI951952
aI1443480
aI1541785
aI1312410
aI2131611
aI1884442
aI1443486
aI2173893
aI1615746
aI558753
aI788130
aI1803939
aI984740
aI1436614
aI394922
aI846791
aI800459
aI1803950
aI100015
aI100017
aI526002
aI755379
aI394937
aI1836730
aI1214139
aI165909
aI1115837
aI2066112
aI755394
aI1111919
aI1409313
aI67273
aI248429
aI1869519
aI1869521
aI1574610
aI1182843
aI132820
aI984791
aI1509080
aI132825
aI1803995
aI755420
aI2033373
aI1902302
aI1239309
aI820960
aI1221033
aI1804002
aI165607
aI2328302
aI1996827
aI132849
aI1214194
aI1574643
aI695109
aI1332329
aI526072
aI722681
aI2328315
aI886057
aI722686
aI1246975
aI1087104
aI1967874
aI753963
aI952068
aI1476358
aI1378056
aI426284
aI1640202
aI1928151
aI1738508
aI1147181
aI2066192
aI1797080
aI2129946
aI74257
aI427800
aI759428
aI919324
aI1517536
aI1541921
aI1967906
aI526115
aI558884
aI195373
aI1163569
aI2206684
aI218759
aI67375
aI395057
aI1017650
aI1443637
aI2266761
aI1028997
aI395067
aI1706589
aI1541951
aI1050433
aI2230082
aI1869635
aI52436
aI1279814
aI1567713
aI688439
aI1181516
aI722765
aI1804111
aI952149
aI1935192
aI788313
aI821082
aI2197339
aI1673054
aI558945
aI34658
aI165732
aI2131813
aI176826
aI2000746
aI722796
aI1267346
aI1503046
aI475453
aI1836912
aI1420264
aI2000755
aI919412
aI1607541
aI1181558
aI755575
aI1771384
aI1607546
aI2099068
aI60394
aI1443711
aI1279874
aI1567723
aI1738628
aI1214341
aI395143
aI591752
aI1214345
aI1902474
aI2262923
aI2295692
aI2059245
aI2007679
aI952210
aI231315
aI1312661
aI2131862
aI690073
aI1026818
aI100251
aI231325
aI362398
aI1245509
aI1443746
aI1116067
aI264103
aI1836970
aI1928178
aI2066350
aI493488
aI1016137
aI1534964
aI1447583
aI821180
aI1509310
aI624576
aI2164674
aI229707
aI748534
aI1607625
aI755661
aI1017806
aI622925
aI165841
aI460755
aI952278
aI1542103
aI1050585
aI919516
aI2131934
aI1509344
aI1574888
aI2025
aI886762
aI173557
aI1640431
aI1673200
aI1948759
aI1869812
aI1739329
aI2039
aI1130836
aI1738747
aI1935359
aI100352
aI395267
aI2197508
aI2000901
aI300727
aI480940
aI1050635
aI1705996
aI788493
aI1771536
aI2066453
aI1640471
aI952344
aI1895428
aI1148958
aI2283184
aI967003
aI1116198
aI1382065
aI36239
aI264234
aI1968171
aI493612
aI1378351
aI541429
aI2164785
aI1181747
aI150807
aI493621
aI919606
aI133175
aI198712
aI1509433
aI1607738
aI2295867
aI2108
aI297021
aI311648
aI1673283
aI67654
aI100423
aI1509448
aI1411145
aI329803
aI2033740
aI1935437
aI1935438
aI2033744
aI1640529
aI1968212
aI1289230
aI165976
aI591962
aI198752
aI886883
aI2048358
aI1256465
aI1017964
aI166000
aI133235
aI480958
aI1050742
aI1706105
aI1738874
aI100475
aI2096133
aI2132094
aI133247
aI329857
aI592002
aI1378435
aI1214601
aI797719
aI1968270
aI428175
aI1280145
aI792259
aI362645
aI624790
aI1600537
aI690328
aI1366168
aI166043
aI624798
aI1771680
aI624801
aI1444002
aI546502
aI2263206
aI264359
aI1116329
aI1050795
aI1444017
aI1837235
aI886964
aI460984
aI1607865
aI395452
aI284362
aI657599
aI2099392
aI2197698
aI723140
aI655734
aI854214
aI2001096
aI1116363
aI1378510
aI133328
aI1968341
aI721273
aI1444056
aI1373808
aI1444058
aI1542363
aI2099420
aI1280223
aI1542369
aI1640674
aI723172
aI1879078
aI254309
aI1149160
aI1640685
aI2001135
aI1083632
aI2206760
aI100595
aI1018101
aI1673463
aI1922867
aI1673467
aI2303
aI2230528
aI985345
aI994347
aI614259
aI1738247
aI1935625
aI1804555
aI2267587
aI723219
aI1633499
aI2033944
aI388
aI1607962
aI461083
aI2048389
aI1673507
aI133412
aI1616945
aI264491
aI297264
aI2353
aI133430
aI2223156
aI919866
aI104827
aI1214782
aI748597
aI1050944
aI362817
aI463809
aI67912
aI952649
aI2306728
aI1476940
aI2328910
aI2230607
aI1771856
aI756051
aI919892
aI278926
aI198999
aI2099547
aI821596
aI461149
aI2197854
aI1529573
aI916629
aI1804644
aI330086
aI1575271
aI952681
aI2066795
aI1182060
aI690542
aI2132335
aI461171
aI362869
aI1742569
aI1739129
aI1542523
aI1345916
aI2099583
aI1804672
aI1476994
aI863297
aI1378698
aI1247627
aI2099598
aI2450
aI2451
aI2230676
aI2263445
aI493974
aI657815
aI1444250
aI1640860
aI1542558
aI747506
aI2466
aI428451
aI493988
aI2075718
aI592294
aI1640871
aI362920
aI590236
aI2053589
aI362923
aI1247660
aI1509807
aI1247665
aI2348787
aI35253
aI2141257
aI1251060
aI2230714
aI1862730
aI1837502
aI2230719
aI1182144
aI1411524
aI1968582
aI362951
aI1051081
aI1837514
aI2099659
aI1313228
aI788942
aI830541
aI1640912
aI1378769
aI657874
aI1182164
aI1660665
aI592345
aI1739227
aI1769893
aI1051105
aI1608162
aI1971963
aI330212
aI1764433
aI166376
aI1640937
aI399438
aI1575407
aI1182192
aI854516
aI311721
aI2165240
aI1360298
aI1018373
aI1973059
aI1764439
aI625164
aI270179
aI2329104
aI1739284
aI549943
aI264730
aI755148
aI264733
aI1444383
aI1542688
aI920098
aI1474993
aI1411625
aI1804844
aI262578
aI1149486
aI257117
aI1346096
aI690741
aI1083958
aI231991
aI1968696
aI967092
aI912479
aI789052
aI789053
aI1608256
aI2165313
aI937368
aI2245633
aI442806
aI1149510
aI985672
aI2263626
aI1720759
aI2268547
aI2132558
aI1149522
aI1673811
aI1149527
aI789080
aI1906447
aI723548
aI2146341
aI1182302
aI1837665
aI1084006
aI690791
aI1608296
aI1215082
aI1673835
aI690797
aI35439
aI2296432
aI1935985
aI1673844
aI1346165
aI330358
aI771518
aI1870457
aI1739386
aI428667
aI952956
aI1968766
aI1754919
aI33216
aI1804932
aI1411719
aI1804936
aI1252707
aI1247884
aI1477261
aI1804942
aI1837711
aI2705
aI395923
aI1542804
aI2132630
aI756375
aI1717009
aI952986
aI2165405
aI2296478
aI723615
aI2101739
aI1682544
aI1608355
aI2067109
aI330407
aI759580
aI1706666
aI1051308
aI953007
aI617587
aI101044
aI1346230
aI2048457
aI1298536
aI1804988
aI887485
aI1411774
aI821951
aI1247936
aI606667
aI887492
aI2108534
aI666743
aI1641164
aI1855013
aI625358
aI1805007
aI1051344
aI985811
aI2130382
aI1575639
aI723673
aI1510106
aI2113999
aI199388
aI1539677
aI874277
aI2001632
aI2034402
aI264931
aI1251100
aI2791
aI1837801
aI330474
aI1149676
aI1540562
aI1018612
aI1379064
aI2231035
aI166652
aI1130965
aI1521044
aI1928320
aI953090
aI1477382
aI486529
aI1837832
aI1936137
aI494346
aI2296589
aI1379087
aI1884632
aI1641234
aI494358
aI690968
aI2059396
aI1674010
aI756507
aI920348
aI1575710
aI1674015
aI1837856
aI297761
aI1260350
aI1276717
aI872999
aI2132778
aI887596
aI1529650
aI2130397
aI1706801
aI101170
aI2316083
aI527156
aI1327582
aI1599939
aI1182519
aI723768
aI661300
aI363322
aI232252
aI756541
aI1936191
aI854848
aI2343392
aI330565
aI756550
aI1248073
aI1542986
aI1280843
aI1371277
aI428881
aI1248082
aI1786339
aI166742
aI985943
aI199514
aI1370556
aI396124
aI55098
aI1149790
aI1968991
aI814224
aI1772387
aI559974
aI1411943
aI896146
aI199534
aI133999
aI1248114
aI1917213
aI1248117
aI1051514
aI1444733
aI1674111
aI1837954
aI232323
aI2043030
aI1805192
aI428938
aI363403
aI2153989
aI1051536
aI625553
aI1988419
aI1346452
aI166806
aI2967
aI1608602
aI723868
aI1313693
aI1870750
aI986017
aI1805221
aI1182630
aI35752
aI289948
aI2296747
aI887725
aI887728
aI494513
aI934388
aI1936314
aI1141919
aI428988
aI986045
aI3006
aI1946676
aI428992
aI1870785
aI1674178
aI1706947
aI822216
aI363467
aI986062
aI494545
aI1772498
aI789459
aI134100
aI1575894
aI1018841
aI244319
aI1444831
aI1117152
aI1772513
aI1412067
aI363494
aI1070929
aI852476
aI1575914
aI2206887
aI1870828
aI1444845
aI804467
aI1117167
aI396272
aI1773188
aI1477620
aI688638
aI1005396
aI1641467
aI723964
aI658429
aI1313790
aI1313795
aI1482948
aI1595222
aI1062863
aI723977
aI1704207
aI953355
aI1212930
aI535726
aI822295
aI101400
aI2231321
aI789532
aI1248285
aI2205277
aI1344005
aI1273361
aI1379361
aI658467
aI822310
aI1018919
aI247269
aI1707050
aI1412140
aI68653
aI265262
aI524808
aI1379378
aI1313843
aI822325
aI1215544
aI68666
aI2231355
aI1674300
aI1346621
aI1304376
aI2001988
aI1870920
aI329319
aI1870922
aI166987
aI2100311
aI1477720
aI2339488
aI953438
aI527458
aI1780923
aI1967413
aI115217
aI1576042
aI1775463
aI2114066
aI1053188
aI153448
aI1903730
aI552126
aI953463
aI1870971
aI1281148
aI2067582
aI35968
aI724097
aI101511
aI2034825
aI461962
aI1805451
aI2329740
aI1674381
aI2034830
aI363664
aI1936534
aI164377
aI2296985
aI2234223
aI359219
aI855197
aI625822
aI1576095
aI36004
aI69940
aI756905
aI560301
aI2198702
aI1903791
aI2231473
aI1979418
aI593075
aI1641652
aI1674423
aI75309
aI1838268
aI1782288
aI560320
aI888001
aI562078
aI1903812
aI1038198
aI2133191
aI199882
aI1903820
aI330959
aI1365880
aI855252
aI1936598
aI1267577
aI1543387
aI1477853
aI724190
aI953567
aI2165987
aI1246098
aI68837
aI830673
aI1248488
aI658666
aI1359658
aI1182956
aI1543408
aI1445105
aI1084659
aI756982
aI1445111
aI2264312
aI855289
aI1838331
aI1740029
aI1051902
aI2242383
aI1314051
aI1578881
aI36104
aI560393
aI1445130
aI670408
aI1445133
aI246317
aI920848
aI2092248
aI2002194
aI1314067
aI2198805
aI1117462
aI1846489
aI167192
aI1098287
aI1092826
aI134430
aI560416
aI1740065
aI822562
aI3363
aI560420
aI855333
aI1638961
aI679886
aI1805609
aI3374
aI1215792
aI888113
aI2035000
aI1584351
aI1077058
aI1191136
aI1051970
aI101699
aI855364
aI560454
aI1043681
aI1431436
aI593227
aI1477965
aI1183057
aI2250638
aI331095
aI363865
aI1183067
aI1344058
aI1052001
aI1379686
aI2087446
aI2329963
aI1936750
aI2168723
aI1346932
aI508478
aI1510774
aI716009
aI232827
aI453866
aI2231678
aI1346944
aI1371371
aI1412486
aI363915
aI298382
aI1969551
aI2224168
aI98883
aI1609108
aI658837
aI1824665
aI986520
aI527774
aI265631
aI593313
aI855461
aI1838504
aI888233
aI1314222
aI2133423
aI1478064
aI2002353
aI1117618
aI2174195
aI1281461
aI1117623
aI757177
aI865383
aI2231740
aI688714
aI1412542
aI1576383
aI1478081
aI1970698
aI1543624
aI36302
aI986575
aI1674705
aI1052117
aI1989248
aI541263
aI1878719
aI1019359
aI789987
aI1049169
aI77052
aI1347051
aI822764
aI1215981
aI1412590
aI1314288
aI1773042
aI265717
aI2297335
aI1871353
aI1183226
aI1150459
aI1274559
aI2002430
aI986625
aI1871362
aI1510917
aI101894
aI757255
aI626184
aI1084937
aI2231819
aI724492
aI429581
aI1838607
aI1940149
aI462354
aI2166292
aI691734
aI69144
aI1087407
aI560670
aI1052192
aI1805859
aI1478182
aI1674791
aI1642025
aI1453319
aI1248815
aI986675
aI1084981
aI1117751
aI298553
aI265786
aI527931
aI492557
aI265794
aI1691373
aI1838660
aI1712869
aI1347146
aI2002507
aI3662
aI2264655
aI1674832
aI1805906
aI1510995
aI527957
aI953943
aI1150552
aI1589860
aI986714
aI2010383
aI757340
aI81957
aI1081957
aI1693627
aI69221
aI888422
aI961809
aI167529
aI741988
aI36459
aI1150572
aI2264685
aI1642094
aI134767
aI495217
aI1828857
aI1954337
aI1612486
aI962339
aI1674874
aI2035323
aI953981
aI1281662
aI822911
aI102016
aI1873856
aI1085058
aI167555
aI1511044
aI790151
aI921225
aI1248906
aI265868
aI69261
aI69262
aI1085072
aI298643
aI678807
aI1255689
aI200344
aI1169348
aI2231964
aI691869
aI481221
aI2231968
aI1609381
aI1805991
aI102057
aI1183402
aI2166443
aI102065
aI1543863
aI1117882
aI757435
aI1871548
aI691902
aI705141
aI593601
aI2251127
aI1019588
aI986821
aI1216201
aI1091256
aI2166476
aI1191202
aI1117902
aI986832
aI1937105
aI863523
aI1130537
aI2035414
aI36568
aI1576665
aI1412828
aI1543901
aI607886
aI1689196
aI1969890
aI2264803
aI1019620
aI1024698
aI328316
aI567699
aI134891
aI448466
aI1117934
aI2155109
aI1740529
aI104403
aI1969910
aI1380088
aI691962
aI888571
aI1715498
aI921343
aI974507
aI986887
aI1977644
aI2164377
aI1507970
aI1019662
aI1314576
aI1464280
aI1052436
aI546777
aI1576728
aI1806105
aI2330394
aI1445659
aI593692
aI528158
aI1245829
aI397088
aI659235
aI2068261
aI1806118
aI1740583
aI1478440
aI1773353
aI141976
aI1216299
aI495404
aI3886
aI1543983
aI1445681
aI626482
aI36659
aI134965
aI1445691
aI2032266
aI462656
aI1478466
aI1183559
aI1445705
aI692043
aI986957
aI1927066
aI1216335
aI365659
aI1642323
aI1118037
aI1806170
aI1622671
aI986972
aI1806173
aI2264926
aI1838943
aI135008
aI705168
aI495458
aI921443
aI1150821
aI724840
aI1380201
aI724843
aI1927067
aI1003489
aI1576815
aI1675121
aI1749213
aI1380211
aI2002804
aI1249141
aI279188
aI1511290
aI2264956
aI528253
aI2133890
aI1216387
aI855940
aI328342
aI913408
aI142657
aI1972204
aI1150859
aI22509
aI1511315
aI2199447
aI1839000
aI233369
aI1169391
aI855966
aI921503
aI1529840
aI1917595
aI1150884
aI1432787
aI2234353
aI2037398
aI167850
aI724908
aI1150893
aI1413040
aI2119667
aI66206
aI2125129
aI1740728
aI2035642
aI298942
aI135103
aI1544128
aI1609665
aI1478594
aI954307
aI2267126
aI888774
aI724939
aI1675213
aI462800
aI36818
aI1609684
aI921557
aI1773526
aI415737
aI626651
aI69596
aI1773535
aI1879376
aI2232290
aI2199523
aI534789
aI1019878
aI2232296
aI233449
aI1806314
aI1267709
aI1019891
aI1347573
aI2265080
aI462841
aI1802922
aI1216511
aI69633
aI561154
aI593923
aI1576965
aI1544198
aI1742849
aI1871880
aI725002
aI4107
aI464898
aI954384
aI1806359
aI1431556
aI397338
aI102427
aI1575729
aI1118243
aI1380389
aI167975
aI1904681
aI2035755
aI2068525
aI1871919
aI1806384
aI366600
aI1544242
aI1359686
aI2101301
aI921658
aI1052731
aI1740860
aI725053
aI1544254
aI1085505
aI1609794
aI1415179
aI2223457
aI2330697
aI2035787
aI1019981
aI921681
aI987219
aI382990
aI594006
aI233560
aI2134109
aI364639
aI331872
aI888930
aI1327803
aI725093
aI921702
aI823399
aI1642601
aI462954
aI1781095
aI888942
aI344937
aI1617256
aI1380468
aI921717
aI2199671
aI2068602
aI1708155
aI987260
aI552298
aI1151102
aI1052799
aI503147
aI659591
aI1085576
aI659594
aI1970316
aI397454
aI1020048
aI2035858
aI1904787
aI1020052
aI725145
aI1282202
aI1806491
aI463005
aI1478817
aI1282210
aI364709
aI2232486
aI213703
aI331952
aI495793
aI595998
aI397495
aI1872058
aI790716
aI921789
aI561342
aI364735
aI1642688
aI1904834
aI1478851
aI1118406
aI622087
aI1904842
aI143081
aI1478860
aI1937613
aI1511631
aI2330832
aI692435
aI331988
aI635181
aI1216726
aI2199767
aI1052890
aI688847
aI4316
aI355852
aI1544415
aI657004
aI1249508
aI2134246
aI1118439
aI135400
aI2232553
aI1773802
aI987372
aI2298093
aI1216752
aI954610
aI364787
aI2134261
aI878796
aI495864
aI1544444
aI1741053
aI1437056
aI2234411
aI1609989
aI42699
aI168199
aI495882
aI430347
aI1085710
aI659728
aI1216786
aI299285
aI1507088
aI1020185
aI1020188
aI266525
aI987422
aI1813893
aI2036001
aI1020194
aI1085731
aI823590
aI2259963
aI2010727
aI230109
aI4404
aI266549
aI1511735
aI599177
aI1511740
aI2043274
aI1970497
aI262881
aI1053002
aI1675600
aI71736
aI168276
aI627029
aI2036054
aI1085783
aI1282392
aI355727
aI1577314
aI1184102
aI2256273
aI2265450
aI2232684
aI528750
aI823663
aI1413490
aI397684
aI579646
aI1884905
aI1479032
aI37242
aI1216891
aI1184128
aI430465
aI2331010
aI954755
aI1764758
aI1660993
aI1053064
aI758154
aI2167179
aI1608709
aI2265485
aI790926
aI2331023
aI2265488
aI1249683
aI1177479
aI1508078
aI364950
aI496024
aI1235012
aI1806746
aI1508079
aI2134429
aI1577377
aI790946
aI954787
aI496036
aI2036133
aI528811
aI2003375
aI1832158
aI692657
aI364978
aI1577396
aI1682846
aI2036151
aI1708472
aI2146589
aI954814
aI37311
aI1872323
aI233927
aI856521
aI1282506
aI213751
aI1708496
aI594385
aI168403
aI70100
aI2036181
aI2228985
aI1380825
aI186447
aI1315292
aI1806814
aI1682853
aI1872352
aI2021456
aI102885
aI954857
aI397802
aI725483
aI2200044
aI2036206
aI2003442
aI37366
aI4599
aI1073259
aI70139
aI463356
aI2068989
aI1139293
aI365055
aI547556
aI1786624
aI135683
aI758276
aI332294
aI591546
aI37385
aI1110924
aI70155
aI2232845
aI1315343
aI1643024
aI1806868
aI1315350
aI366681
aI2069017
aI1970714
aI1970717
aI725534
aI561697
aI234018
aI1610276
aI463399
aI1610280
aI1808476
aI135724
aI1217070
aI463407
aI1015997
aI1020467
aI670109
aI591856
aI1839677
aI1249860
aI1830326
aI660040
aI1479248
aI1217106
aI1643091
aI1806933
aI2069080
aI2036314
aI2069084
aI1643103
aI397921
aI1053282
aI2298467
aI758373
aI365158
aI2069095
aI954984
aI1355196
aI1544810
aI332396
aI922225
aI266866
aI1741428
aI858217
aI891697
aI1872506
aI142783
aI758402
aI1202583
aI1621577
aI966899
aI1675913
aI1461918
aI1741453
aI1512078
aI1053329
aI1217170
aI1550654
aI2221699
aI2232981
aI2101910
aI1708695
aI103067
aI4523
aI814533
aI1153136
aI705307
aI208326
aI1512102
aI1586979
aI1282729
aI1970858
aI594603
aI561837
aI1053359
aI856752
aI365234
aI837056
aI1970869
aI627382
aI660151
aI2087028
aI1479354
aI2331325
aI2200254
aI1446591
aI2265792
aI1249986
aI201413
aI2163489
aI1643208
aI856777
aI1577676
aI1970894
aI4816
aI1874040
aI694119
aI1675989
aI627416
aI594650
aI922331
aI1839839
aI1151712
aI824035
aI1180454
aI2069228
aI267488
aI1872622
aI1872626
aI103155
aI1676020
aI1151737
aI922365
aI880086
aI627462
aI1693825
aI1358619
aI2102025
aI2167562
aI398091
aI872276
aI99117
aI4880
aI955155
aI2265877
aI1905430
aI1938200
aI1053465
aI1086234
aI1789616
aI2200349
aI1131108
aI1116389
aI2298660
aI2185350
aI2323179
aI4904
aI660267
aI2036524
aI1499376
aI2298670
aI365361
aI103218
aI725811
aI2344737
aI594743
aI191967
aI660287
aI2163510
aI561990
aI2200391
aI1577800
aI791370
aI1413963
aI1479501
aI1151823
aI1535459
aI430932
aI529240
aI1872730
aI546959
aI2298717
aI955230
aI1317008
aI2245435
aI997458
aI1545062
aI201575
aI267112
aI2200429
aI889711
aI725874
aI758643
aI1610612
aI70517
aI1184630
aI2167671
aI301204
aI660346
aI693118
aI1479553
aI2200450
aI430980
aI1381253
aI234375
aI2069384
aI791433
aI1512331
aI201612
aI219288
aI562067
aI1328072
aI1207790
aI1060823
aI398236
aI1600056
aI2327365
aI1814789
aI1731209
aI2200484
aI1479591
aI1938346
aI463787
aI299948
aI2167728
aI791475
aI1708980
aI889781
aI1721161
aI1577913
aI562106
aI2281721
aI1020860
aI1676223
aI149653
aI1217473
aI754507
aI1053637
aI1479623
aI1741768
aI1672012
aI332747
aI1741772
aI824269
aI1840082
aI70612
aI836430
aI758745
aI758746
aI1676252
aI136157
aI2327376
aI1060347
aI37861
aI1061839
aI2233322
aI1302979
aI934739
aI1906857
aI394068
aI1442644
aI1938430
aI1086463
aI1643521
aI857090
aI1577990
aI2266119
aI529417
aI2331660
aI562190
aI1381397
aI791575
aI1971227
aI37918
aI1945093
aI1512482
aI901979
aI2102308
aI1647778
aI70697
aI1217578
aI1831088
aI1545261
aI1704517
aI899556
aI726065
aI1594313
aI267315
aI1086516
aI862
aI857142
aI1643575
aI1709112
aI1969662
aI2327391
aI169020
aI1315901
aI2135102
aI726082
aI1872963
aI496708
aI300101
aI447536
aI1535500
aI2266192
aI2135121
aI1246051
aI1741910
aI1579193
aI1311588
aI2266202
aI339471
aI5213
aI2147173
aI857184
aI1021025
aI1662906
aI168127
aI2108237
aI37991
aI234600
aI201833
aI1152107
aI1053804
aI1905773
aI1774705
aI1788167
aI365684
aI1753961
aI1774712
aI1807481
aI1348730
aI2266235
aI1098602
aI1610878
aI847381
aI1508203
aI585238
aI1053830
aI988295
aI1729616
aI1053833
aI1643658
aI136331
aI377706
aI332942
aI1348751
aI1643665
aI1676437
aI486937
aI1447064
aI1808580
aI138749
aI1545372
aI1578141
aI1349829
aI2126169
aI1753968
aI2036898
aI1447080
aI1283241
aI1119404
aI529583
aI1873072
aI627892
aI1119416
aI2130804
aI103610
aI1141568
aI660669
aI2266302
aI955584
aI1485418
aI1184964
aI1742022
aI1545420
aI1578189
aI201935
aI1414353
aI2299091
aI2152654
aI627926
aI398551
aI616666
aI726233
aI1136847
aI2102492
aI759006
aI693471
aI1643744
aI562401
aI269687
aI398564
aI2266343
aI595176
aI1840363
aI627950
aI169200
aI2331890
aI431348
aI175657
aI137428
aI169210
aI1512699
aI1119484
aI1879594
aI2233598
aI693504
aI1928747
aI50049
aI955657
aI595210
aI1644759
aI1835906
aI1792906
aI550109
aI1545492
aI300310
aI693531
aI300316
aI333092
aI1938725
aI2266407
aI5417
aI464170
aI1344391
aI928732
aI1119536
aI2261458
aI857396
aI1709365
aI398647
aI2331960
aI372276
aI857402
aI1512763
aI951178
aI1552859
aI169280
aI1119553
aI202051
aI660804
aI962843
aI907489
aI1742152
aI1512778
aI1240631
aI1938764
aI726349
aI628049
aI726354
aI1612003
aI103764
aI1480022
aI1283415
aI1054042
aI234844
aI1152351
aI1480035
aI1676644
aI2297011
aI1348968
aI2282549
aI2094061
aI267628
aI2168173
aI202095
aI1512818
aI1971571
aI2069876
aI2299255
aI2332024
aI791930
aI2069884
aI1300714
aI2266495
aI1414528
aI1512836
aI1021317
aI5510
aI497031
aI2004361
aI1185165
aI595343
aI1643920
aI5523
aI234902
aI365975
aI2027076
aI1840539
aI1349020
aI2332061
aI1480096
aI726436
aI1414567
aI693673
aI791982
aI693680
aI2135473
aI1709491
aI38324
aI497077
aI595382
aI300471
aI1054139
aI398781
aI1742270
aI300480
aI2201025
aI1185218
aI136646
aI2016161
aI1873352
aI1938893
aI2317746
aI1349072
aI555571
aI2233811
aI464345
aI1371727
aI103903
aI1709541
aI1054185
aI562666
aI1775084
aI1086960
aI1480958
aI1054202
aI693755
aI2212999
aI126549
aI2102785
aI2180011
aI497158
aI2299400
aI95116
aI339543
aI1512973
aI38414
aI562703
aI1742352
aI1512977
aI1447442
aI693780
aI5653
aI1086999
aI71194
aI232599
aI2076250
aI2168350
aI1693957
aI267808
aI2168354
aI857637
aI2311089
aI1879644
aI71210
aI1005831
aI2135596
aI1152557
aI136752
aI1218097
aI902067
aI1218101
aI890423
aI1611321
aI693818
aI267835
aI595516
aI103997
aI1873472
aI2332225
aI202306
aI1939723
aI1807942
aI2223713
aI1825036
aI213943
aI2135628
aI1611343
aI595538
aI890452
aI596238
aI1807958
aI1611352
aI1677583
aI1316444
aI1873502
aI1371749
aI2233952
aI1054305
aI1087074
aI1644131
aI1604207
aI890472
aI623548
aI454247
aI2164993
aI973479
aI2130077
aI1087091
aI1946397
aI1767822
aI2295929
aI1676921
aI1709692
aI2233981
aI1578624
aI1999808
aI2102916
aI1846384
aI5770
aI1119883
aI426946
aI1325098
aI1382031
aI1923352
aI2004626
aI2168467
aI2037396
aI1021590
aI2299545
aI851274
aI136861
aI1971871
aI2332323
aI1906344
aI267946
aI1519218
aI726702
aI399025
aI1218226
aI1382067
aI1054388
aI1349301
aI235191
aI1185466
aI2234044
aI825021
aI178428
aI759491
aI1644228
aI1840837
aI562886
aI1087175
aI2168521
aI1644235
aI1906383
aI792273
aI1054418
aI1316565
aI814713
aI2135768
aI66511
aI431836
aI749178
aI1054438
aI562919
aI1677033
aI678183
aI2266861
aI1218288
aI1677044
aI759541
aI169719
aI1941316
aI1115092
aI1404543
aI743722
aI1447678
aI1251071
aI71424
aI366337
aI1939202
aI2103045
aI1611528
aI1283849
aI38668
aI1447695
aI2119171
aI2212824
aI1578770
aI1044099
aI2135828
aI1513237
aI661270
aI1906455
aI464664
aI1316633
aI891183
aI1185564
aI2266911
aI759584
aI2048987
aI562980
aI1967068
aI1840938
aI1218347
aI71470
aI1054513
aI1268019
aI595764
aI562997
aI595766
aI274057
aI2234171
aI104253
aI1349440
aI857921
aI1349444
aI1964721
aI2004811
aI2037584
aI1709906
aI759635
aI1396677
aI1495047
aI1972057
aI1775450
aI956730
aI825182
aI1480544
aI2201441
aI1218402
aI923493
aI1415015
aI2119996
aI2004842
aI342053
aI1415021
aI801089
aI874813
aI1447794
aI2322067
aI1415031
aI2168696
aI1087357
aI481600
aI989059
aI1677190
aI1979337
aI6024
aI1120138
aI1896087
aI2168716
aI104335
aI2299793
aI1546131
aI1808277
aI71575
aI1787472
aI923547
aI720347
aI759712
aI989089
aI1906598
aI1513383
aI1152936
aI2332591
aI1382321
aI2004915
aI1906613
aI416073
aI1251256
aI1185721
aI552607
aI2347223
aI923583
aI1742784
aI1448132
aI2070469
aI432074
aI1578958
aI137171
aI1921508
aI1906647
aI487076
aI645061
aI1742813
aI2070495
aI1885179
aI923622
aI1710056
aI2136044
aI721917
aI858096
aI1087473
aI1906677
aI399350
aI2109097
aI137211
aI534858
aI301054
aI1939455
aI1480705
aI2201602
aI552619
aI727044
aI1891133
aI381009
aI1016833
aI530440
aI547159
aI1579020
aI2168847
aI170003
aI1224453
aI792598
aI1055328
aI1970609
aI1579036
aI1480734
aI1147909
aI628769
aI1382435
aI432169
aI492551
aI105847
aI1972280
aI1666740
aI1677370
aI1153084
aI1251389
aI1644609
aI2196491
aI727108
aI1054790
aI563271
aI958219
aI1371831
aI1284174
aI989263
aI1044152
aI1448020
aI754702
aI416100
aI1579099
aI2234460
aI969131
aI1022046
aI890975
aI1513568
aI530535
aI2267241
aI104555
aI39023
aI399472
aI1284210
aI202867
aI235636
aI530550
aI1480824
aI530556
aI268416
aI1939586
aI2201731
aI2139259
aI71815
aI1382536
aI989322
aI1417587
aI1218701
aI1513614
aI2201743
aI1054864
aI792724
aI39278
aI2278489
aI301207
aI1054872
aI798404
aI1185946
aI1055087
aI1426458
aI301217
aI792738
aI1513638
aI1120425
aI1699527
aI956593
aI989363
aI2151919
aI1218744
aI2005364
aI2024948
aI1814218
aI410656
aI891074
aI1644740
aI956790
aI569036
aI1022155
aI1972432
aI530641
aI1743060
aI39127
aI2332888
aI229349
aI2267356
aI301279
aI1022177
aI137443
aI956645
aI1677542
aI1339089
aI1480936
aI39146
aI923883
aI1743084
aI465133
aI1868227
aI1546621
aI2059987
aI1480948
aI39159
aI1644792
aI923897
aI2201851
aI1033513
aI497918
aI918571
aI1054983
aI465163
aI301324
aI2332942
aI1022223
aI1120531
aI432404
aI1723108
aI1087767
aI923929
aI2234650
aI2201883
aI170268
aI268573
aI495587
aI1255629
aI1415458
aI1382691
aI2332964
aI1906988
aI39213
aI1027805
aI1415474
aI1479787
aI694581
aI334137
aI2070842
aI432443
aI2223938
aI1481024
aI2207456
aI203075
aI1022277
aI1546636
aI989514
aI1330303
aI104781
aI2005329
aI2300243
aI766666
aI596310
aI1360953
aI1251674
aI1087838
aI1612128
aI104801
aI443451
aI1644901
aI956775
aI1644904
aI1710443
aI1808749
aI727406
aI268655
aI891248
aI1158888
aI563572
aI1579382
aI1055095
aI301432
aI1415546
aI1879143
aI1677692
aI1481085
aI1350014
aI1284483
aI694660
aI1644933
aI661894
aI1513864
aI1874315
aI2070924
aI569069
aI465296
aI2333075
aI989588
aI2136470
aI1448346
aI2273007
aI203164
aI2267554
aI1087908
aI1186214
aI1382823
aI530856
aI530844
aI989610
aI793004
aI465325
aI1841582
aI367023
aI72113
aI2070963
aI2118568
aI1317302
aI1186233
aI1825183
aI1655882
aI1087934
aI2070976
aI956865
aI2136514
aI1901643
aI1579460
aI1481158
aI170440
aI498122
aI1939915
aI1350092
aI1284560
aI1486584
aI334290
aI530008
aI2136533
aI1945337
aI1153498
aI1284572
aI2136541
aI1694117
aI104930
aI2218488
aI1776104
aI661993
aI2071018
aI1317355
aI2114642
aI538148
aI1661352
aI2234866
aI1502974
aI1513975
aI2267640
aI187666
aI1317372
aI2267646
aI1153536
aI1808899
aI2234856
aI1448454
aI629255
aI793096
aI694795
aI2198849
aI1514000
aI1415698
aI694803
aI1808814
aI1186326
aI2202135
aI1579544
aI334363
aI858652
aI1448477
aI367134
aI2227681
aI2202144
aI760353
aI2234914
aI1055270
aI137767
aI1156821
aI1677875
aI596532
aI236087
aI2136632
aI2333242
aI2038331
aI1579580
aI1776189
aI2202174
aI1776192
aI1016928
aI2322187
aI2333110
aI634637
aI1626008
aI432724
aI629177
aI1546840
aI39513
aI1186399
aI993153
aI1617680
aI1269209
aI1677926
aI1055335
aI1120872
aI1448554
aI1579627
aI1677933
aI334447
aI1219184
aI1907313
aI301502
aI2267770
aI1776252
aI1972861
aI858750
aI689259
aI1502998
aI1529363
aI694919
aI1350280
aI367241
aI563850
aI137867
aI236176
aI667416
aI2267795
aI727700
aI977879
aI1797913
aI891544
aI760474
aI924320
aI629411
aI327566
aI105128
aI6829
aI236206
aI2136753
aI137906
aI1469788
aI1678005
aI2267830
aI2267831
aI2075557
aI2103994
aI367292
aI465597
aI2169534
aI1841857
aI1677771
aI285013
aI1546951
aI865306
aI1546954
aI2300622
aI1874640
aI1219281
aI734559
aI1978147
aI72404
aI1645270
aI465623
aI760536
aI334556
aI137950
aI1481440
aI1874384
aI137954
aI2054827
aI1448681
aI432875
aI6894
aI1252080
aI1284849
aI1284850
aI1448691
aI1677320
aI1186551
aI1759700
aI1284858
aI957187
aI2235140
aI2283990
aI17537
aI498441
aI72459
aI201249
aI2038544
aI711128
aI1907475
aI367380
aI1252118
aI596759
aI558212
aI760603
aI465694
aI2333472
aI1976288
aI1940260
aI1153831
aI2327687
aI239189
aI1211386
aI924468
aI400183
aI695096
aI1710906
aI662333
aI2333502
aI1710911
aI367427
aI1973060
aI2322230
aI1368751
aI110391
aI1121101
aI879847
aI596815
aI891729
aI596819
aI1678164
aI1219413
aI1514326
aI1088348
aI1350498
aI1088356
aI2071397
aI1448806
aI498535
aI1383272
aI1121131
aI793453
aI1710959
aI1252208
aI1537636
aI2038642
aI1186675
aI791329
aI1169897
aI312468
aI1290047
aI2071420
aI334718
aI1098901
aI1383296
aI1383301
aI1645446
aI1158977
aI170890
aI1442967
aI126786
aI350701
aI367505
aI531347
aI2005911
aI1711002
aI1257457
aI1612700
aI1835516
aI236446
aI1973151
aI1121184
aI2316784
aI1711010
aI957347
aI1055652
aI2142022
aI2169767
aI2038696
aI1448873
aI2333610
aI1890073
aI1121197
aI396316
aI1492125
aI1842098
aI1448884
aI1219509
aI891830
aI39864
aI2137023
aI2137024
aI1711041
aI728002
aI1842116
aI1563126
aI1082529
aI531401
aI1268215
aI1219532
aI890599
aI1088464
aI1121233
aI2163875
aI1219540
aI1191758
aI105430
aI1542004
aI2169821
aI1317854
aI1678303
aI1383395
aI1874916
aI728043
aI1088492
aI1088494
aI1842159
aI2300912
aI7153
aI143187
aI203764
aI1743862
aI1350650
aI1842171
aI1317885
aI2349939
aI2202623
aI465921
aI7171
aI241494
aI695302
aI1100098
aI859153
aI1383446
aI760855
aI1809432
aI498713
aI695323
aI625457
aI2169887
aI1973280
aI891937
aI2076507
aI1023012
aI1678374
aI1737905
aI1350696
aI1257308
aI203271
aI1547309
aI72750
aI597039
aI367664
aI2300980
aI2202680
aI1678394
aI2169915
aI2038845
aI1285186
aI826438
aI1973322
aI728146
aI695382
aI1842265
aI1875035
aI1907804
aI1711201
aI1317986
aI1481827
aI2006116
aI1449061
aI1973350
aI957543
aI1847143
aI1547373
aI1617529
aI531568
aI1514609
aI2137203
aI1443006
aI2301046
aI1929065
aI1842297
aI1678458
aI1121403
aI2169985
aI597122
aI1077099
aI990989
aI1628694
aI203910
aI214209
aI760343
aI1219727
aI892048
aI990354
aI892053
aI2333848
aI1645721
aI1154203
aI2038940
aI2333853
aI498848
aI1726297
aI2137251
aI2006180
aI1940646
aI1055911
aI1366556
aI661469
aI728239
aI72259
aI1044339
aI761014
aI2235575
aI1612985
aI2137274
aI629947
aI2071742
aI1416383
aI924864
aI2104513
aI1339377
aI2170051
aI1088714
aI2060151
aI498893
aI1547474
aI2202835
aI1940692
aI1744087
aI1907930
aI1067371
aI2170076
aI913274
aI367838
aI1645792
aI1940709
aI171238
aI335079
aI892136
aI138473
aI1306329
aI1694247
aI1809644
aI204015
aI1776880
aI1973490
aI7413
aI481833
aI695546
aI269565
aI204030
aI2137345
aI2006275
aI1580292
aI826632
aI1247409
aI531722
aI1492183
aI826636
aI1907982
aI72977
aI1940754
aI1318163
aI2104596
aI335125
aI115929
aI236824
aI630042
aI2333979
aI8977
aI1535468
aI1535877
aI711216
aI1681108
aI2268455
aI957737
aI1791237
aI1350955
aI1111019
aI761136
aI2268466
aI1252662
aI585609
aI1023289
aI2147551
aI367932
aI1744190
aI1842495
aI1613121
aI630083
aI678454
aI1023302
aI1023303
aI1580360
aI466249
aI269642
aI630091
aI499024
aI335185
aI1306124
aI2104659
aI1613140
aI1268143
aI1908054
aI630103
aI1908056
aI367965
aI1104008
aI662881
aI1096836
aI597347
aI1875300
aI564582
aI1055292
aI793962
aI957803
aI957804
aI269677
aI1187182
aI2300478
aI1131753
aI2268537
aI2153023
aI859516
aI2334080
aI2235778
aI1023363
aI1339286
aI957832
aI1711497
aI1957739
aI2137487
aI630160
aI28568
aI73107
aI957845
aI1514902
aI1187225
aI1711515
aI204188
aI794014
aI1055301
aI204193
aI204198
aI1777063
aI335274
aI2334125
aI728494
aI1940911
aI2329598
aI1154481
aI1875378
aI957876
aI1383862
aI925112
aI826811
aI1023421
aI2170302
aI597440
aI957891
aI662980
aI1787126
aI1351110
aI1732513
aI171464
aI2120268
aI2039242
aI1744331
aI503714
aI40398
aI1737333
aI2104786
aI922259
aI1482197
aI1711574
aI2039255
aI597465
aI302554
aI2268635
aI859614
aI269792
aI1121762
aI597475
aI1514981
aI1973734
aI23121
aI1089003
aI728557
aI361419
aI794096
aI1765288
aI338299
aI73204
aI1459454
aI1809910
aI2207657
aI1678841
aI651660
aI2026484
aI1613312
aI181504
aI1159083
aI826886
aI1023495
aI1777160
aI160652
aI1200499
aI1449485
aI1437613
aI334424
aI546049
aI2170392
aI1273775
aI860067
aI2137632
aI1858139
aI171556
aI2137637
aI1449512
aI1613354
aI1318444
aI2301485
aI433712
aI1351217
aI2212808
aI597560
aI2076596
aI237116
aI1973822
aI2257849
aI564800
aI416352
aI2235972
aI1978294
aI564806
aI2267745
aI2072136
aI564809
aI433738
aI1294778
aI1580622
aI237135
aI597585
aI171602
aI1121877
aI1547863
aI1547866
aI1891187
aI509606
aI1941087
aI73315
aI940813
aI1318502
aI1285736
aI728681
aI302698
aI449127
aI1175485
aI171632
aI1331438
aI695924
aI1023605
aI1416827
aI1646204
aI1481322
aI1384062
aI1384065
aI1399403
aI2203269
aI499342
aI7824
aI1646225
aI138898
aI1285783
aI674579
aI368281
aI1711770
aI301679
aI312602
aI2301599
aI1023648
aI1089186
aI2170533
aI827047
aI630440
aI2268841
aI73386
aI1220267
aI138925
aI728754
aI597684
aI73399
aI1393198
aI186996
aI1679034
aI328991
aI2072252
aI1023677
aI230688
aI2264357
aI1941191
aI204496
aI138962
aI335571
aI2236116
aI499413
aI2236118
aI2236119
aI1931778
aI433881
aI1763529
aI1973982
aI499424
aI487376
aI892644
aI859877
aI1056487
aI2202236
aI2203370
aI1541415
aI73454
aI1268349
aI597744
aI1590568
aI40691
aI1416951
aI2105081
aI1646330
aI1908475
aI696060
aI2174879
aI1548033
aI433922
aI204550
aI1482503
aI1580808
aI990985
aI1449738
aI204555
aI910267
aI1738029
aI401170
aI1777427
aI2039575
aI1777433
aI499482
aI1072919
aI794397
aI2039583
aI2289627
aI1941284
aI597798
aI2006824
aI597801
aI925484
aI171823
aI958258
aI274398
aI106294
aI842377
aI620902
aI1285945
aI958270
aI1639733
aI110560
aI802946
aI8005
aI449812
aI663367
aI2334536
aI465308
aI1351500
aI1253197
aI1908558
aI1580879
aI1679184
aI2105172
aI1154901
aI394553
aI1482584
aI1515353
aI1023834
aI1635377
aI2301788
aI1978486
aI106334
aI769514
aI827235
aI1421286
aI1711974
aI1875816
aI2133417
aI958316
aI1318765
aI1066517
aI2269042
aI794483
aI1974132
aI2301814
aI728953
aI1154938
aI1077226
aI434048
aI466817
aI958338
aI532355
aI1122180
aI532358
aI263489
aI1236768
aI1482634
aI958349
aI2334609
aI2334613
aI270230
aI892823
aI565148
aI1187742
aI247109
aI1482656
aI281781
aI1613730
aI1056675
aI696228
aI1159153
aI565160
aI791339
aI73643
aI597936
aI1613745
aI2006962
aI252574
aI630710
aI702958
aI237498
aI1155003
aI630717
aI1744830
aI1579680
aI2006981
aI1351623
aI2105288
aI2039756
aI1104546
aI499662
aI958415
aI2322424
aI1056722
aI1022627
aI509262
aI1253335
aI663513
aI2102879
aI663518
aI1253346
aI466915
aI1999222
aI2072551
aI1384424
aI630761
aI630762
aI1955577
aI1515501
aI1253358
aI1187824
aI2185896
aI1908722
aI2301939
aI1482741
aI1286135
aI1901908
aI1646586
aI1712123
aI991230
aI794625
aI73731
aI270340
aI1639766
aI2170887
aI729097
aI1155082
aI1187851
aI2334732
aI73741
aI1875983
aI139281
aI1011569
aI1372163
aI1351703
aI1613849
aI1515546
aI1777692
aI1329819
aI2334755
aI940828
aI139303
aI1482792
aI963298
aI696363
aI1252018
aI372744
aI1941555
aI860212
aI1253429
aI668046
aI1536009
aI1810489
aI532539
aI1646654
aI1712191
aI1515584
aI2007105
aI1694390
aI41031
aI1318984
aI1814540
aI1810506
aI1908811
aI1908812
aI2105421
aI2269262
aI204879
aI106578
aI427363
aI761940
aI172117
aI467030
aI794714
aI1974363
aI1155165
aI729185
aI1646691
aI663652
aI565350
aI663655
aI499817
aI1344871
aI1581164
aI663668
aI1710782
aI1941622
aI893048
aI1876091
aI729212
aI1089661
aI565375
aI1613952
aI1351811
aI876227
aI827529
aI1056906
aI2060311
aI2269329
aI139412
aI2072725
aI2122726
aI1417368
aI1613978
aI2269339
aI1220764
aI401565
aI1646752
aI1810594
aI2039973
aI1122470
aI204970
aI1417390
aI1645469
aI1941680
aI1481416
aI598194
aI106675
aI253421
aI1974460
aI1796279
aI738677
aI1938126
aI1761869
aI2269379
aI1056964
aI1777862
aI2322465
aI1417423
aI630992
aI1459576
aI860370
aI336084
aI514766
aI1614039
aI336088
aI2240548
aI270554
aI598236
aI794846
aI385449
aI1188070
aI1220839
aI1122537
aI2302190
aI2344317
aI1974512
aI2338856
aI205042
aI1694419
aI893173
aI2236662
aI2007294
aI1357647
aI1555561
aI794884
aI794886
aI1410433
aI2040074
aI762123
aI336140
aI1548563
aI1310729
aI1617966
aI1024279
aI499993
aI1777946
aI1220891
aI8477
aI1745182
aI1057055
aI663840
aI762146
aI237860
aI1286440
aI1581355
aI2040108
aI2302254
aI1727197
aI1454131
aI106806
aI270647
aI467257
aI1712450
aI991555
aI172360
aI1352013
aI1220942
aI1078959
aI794961
aI1122643
aI1515861
aI368982
aI2105688
aI270681
aI2236768
aI1262992
aI565604
aI2236773
aI696678
aI2138474
aI532843
aI926060
aI1581421
aI827760
aI2007409
aI1319282
aI1344915
aI2204021
aI500087
aI106873
aI1745274
aI1133079
aI1286524
aI1974653
aI369025
aI860546
aI626798
aI2007431
aI1483144
aI383724
aI312727
aI1450380
aI1175618
aI8590
aI1468947
aI2007441
aI2007446
aI1221015
aI1089944
aI500121
aI2072987
aI860573
aI962629
aI815174
aI1024423
aI926121
aI41386
aI132509
aI205234
aI2239286
aI1012856
aI1679805
aI498421
aI1843649
aI1757007
aI1323083
aI1909188
aI238022
aI1253831
aI602188
aI926154
aI714743
aI512028
aI2302420
aI1830990
aI1614294
aI629497
aI1810904
aI696797
aI2278821
aI860641
aI1155554
aI958947
aI1647076
aI1090021
aI893415
aI172521
aI991722
aI631276
aI1954503
aI467440
aI1712625
aI476657
aI336374
aI2171383
aI2073080
aI696829
aI1450495
aI729601
aI1548803
aI565768
aI926218
aI500235
aI1162416
aI1676266
aI2138645
aI369174
aI664087
aI762393
aI1483294
aI369184
aI1516065
aI172584
aI795177
aI2063618
aI1090091
aI827948
aI853426
aI1548848
aI1516081
aI369202
aI238131
aI2111378
aI957193
aI2040377
aI1286716
aI1843773
aI664126
aI1417791
aI696896
aI1909313
aI1843779
aI1942086
aI1847393
aI2105928
aI1679950
aI1137421
aI2073170
aI1712723
aI1188436
aI2237017
aI1155674
aI402014
aI1838847
aI1286755
aI274534
aI2335336
aI99772
aI565866
aI238187
aI1024622
aI1721789
aI1516144
aI303729
aI533106
aI203539
aI2073205
aI2007671
aI467576
aI1605346
aI2208741
aI1679997
aI74366
aI1006357
aI500352
aI139905
aI1191808
aI893571
aI1385093
aI1734100
aI1385101
aI1745550
aI815213
aI1024661
aI139926
aI1186585
aI1155737
aI1876634
aI238235
aI631453
aI1974942
aI533151
aI2335394
aI1858331
aI139945
aI139949
aI828082
aI1057460
aI336566
aI984521
aI1090233
aI2138810
aI1221310
aI533184
aI2098635
aI1355894
aI1450695
aI345548
aI1942222
aI565967
aI860880
aI1257592
aI565970
aI2252137
aI1312206
aI795353
aI1286874
aI500443
aI402140
aI2302686
aI205535
aI1516256
aI1123042
aI795363
aI533221
aI533224
aI1221353
aI1450730
aI449319
aI697070
aI1940327
aI303861
aI781547
aI238333
aI2106114
aI172805
aI1647367
aI2335497
aI1155850
aI2040587
aI1057550
aI1639896
aI1968009
aI205587
aI1745685
aI55679
aI598807
aI172824
aI1811225
aI1385243
aI1557978
aI1486981
aI2171683
aI107300
aI893735
aI2118183
aI828202
aI598829
aI2040623
aI926512
aI467761
aI1024818
aI1661747
aI1909556
aI1975094
aI1614647
aI2040632
aI2131423
aI1282378
aI533310
aI435008
aI9025
aI2125963
aI435014
aI1450825
aI74570
aI793399
aI2270030
aI731358
aI926545
aI500563
aI1130197
aI1534430
aI2257039
aI1942364
aI74590
aI968165
aI926562
aI1647460
aI46129
aI533350
aI1667217
aI1647464
aI959337
aI1909611
aI762733
aI1760061
aI828274
aI1909621
aI205686
aI1581943
aI367423
aI1683916
aI1361386
aI402302
aI897173
aI2302850
aI402307
aI697223
aI664456
aI435082
aI1366850
aI2049517
aI205712
aI795537
aI2332048
aI858947
aI1811348
aI1614742
aI1549207
aI2335640
aI2038596
aI1975194
aI1549211
aI1844124
aI2139037
aI1317701
aI926625
aI1614756
aI1614757
aI1385383
aI1287081
aI1123242
aI2270123
aI500652
aI1713069
aI2335665
aI271283
aI1811381
aI1713080
aI1844155
aI566204
aI1153866
aI1352642
aI304067
aI582628
aI132598
aI1323169
aI762825
aI2253448
aI2040780
aI1254351
aI467920
aI730066
aI1483731
aI500697
aI173018
aI1909725
aI1450974
aI500703
aI926692
aI500710
aI926695
aI41962
aI828397
aI1254382
aI959471
aI2008048
aI533491
aI1624999
aI1549302
aI1650857
aI2209845
aI465749
aI1156096
aI992257
aI467971
aI1418244
aI959493
aI1066497
aI435209
aI205834
aI1451022
aI402447
aI2040848
aI861204
aI1909781
aI926743
aI1582105
aI500763
aI1188892
aI2335774
aI795679
aI1778720
aI1123361
aI1811496
aI1137500
aI771591
aI861230
aI1977436
aI959537
aI1868319
aI304185
aI2106427
aI1221692
aI1025086
aI435265
aI1385077
aI1091439
aI599109
aI435270
aI697417
aI1483850
aI1320013
aI2073678
aI1431872
aI2237522
aI809827
aI2106452
aI2073685
aI2218577
aI828504
aI500825
aI1713243
aI1877086
aI638587
aI697440
aI1647713
aI1975394
aI1188965
aI1476113
aI1352809
aI304235
aI2270318
aI684221
aI533616
aI1156211
aI1127448
aI566391
aI992377
aI1778810
aI599163
aI1287294
aI1541653
aI2303105
aI304260
aI1811593
aI238732
aI2316298
aI959635
aI1352852
aI1025176
aI2270363
aI2014538
aI2008223
aI1942688
aI730273
aI468130
aI2270372
aI1483941
aI566439
aI1582251
aI730284
aI2106541
aI1189040
aI74930
aI566451
aI238776
aI2172089
aI1123514
aI493087
aI2237630
aI2050719
aI1680578
aI2335941
aI828614
aI1287368
aI599243
aI795854
aI1746127
aI9426
aI697555
aI1221846
aI1385687
aI1156312
aI435419
aI402654
aI2303200
aI1552592
aI206051
aI1778920
aI468207
aI2106612
aI992501
aI42230
aI1377833
aI1189113
aI562247
aI1776511
aI992509
aI1615102
aI337153
aI1499528
aI2000427
aI1746182
aI1221897
aI1731939
aI1615118
aI2082349
aI1385745
aI2204949
aI2204951
aI435482
aI501024
aI894241
aI337189
aI2139433
aI1778987
aI1385772
aI975787
aI107823
aI206128
aI9521
aI369970
aI1385782
aI687729
aI927033
aI1353019
aI31786
aI533821
aI566591
aI192736
aI927042
aI1811780
aI992581
aI1192161
aI1320266
aI1451342
aI1219469
aI438499
aI2113837
aI2008409
aI959834
aI402782
aI1353056
aI140641
aI1320290
aI992615
aI2336104
aI796011
aI107884
aI2270573
aI1476157
aI1254771
aI33053
aI2106741
aI1090934
aI1320311
aI1975674
aI173435
aI1615229
aI1942910
aI1254784
aI1680770
aI1648006
aI959883
aI2008462
aI2257133
aI1877395
aI173461
aI1418647
aI1524629
aI828828
aI2205085
aI533918
aI1302988
aI2139554
aI1025444
aI2205094
aI697767
aI367516
aI1451435
aI894380
aI1090989
aI1549743
aI2106800
aI42419
aI1418681
aI370106
aI730555
aI1385916
aI665022
aI1913077
aI1451457
aI1222084
aI2172357
aI501191
aI173513
aI140749
aI206286
aI1640013
aI1550818
aI1648083
aI730580
aI1877462
aI599512
aI140762
aI1536250
aI1910238
aI1320415
aI427600
aI108003
aI140772
aI1320423
aI1385960
aI9705
aI1451498
aI1451501
aI992750
aI206319
aI1180926
aI239090
aI1877493
aI75255
aI1287673
aI1091067
aI105386
aI2270718
aI2033237
aI2041347
aI1351143
aI632330
aI853591
aI1025548
aI337421
aI1055447
aI1417687
aI2224428
aI1263192
aI1779218
aI1940398
aI1877527
aI861720
aI1978628
aI1091099
aI1779228
aI1222175
aI1582626
aI1648165
aI2041382
aI1970906
aI206377
aI1189418
aI1254955
aI1812012
aI1137586
aI1656413
aI1189425
aI632370
aI9779
aI435764
aI173627
aI2202549
aI796224
aI1875269
aI468551
aI1320520
aI435785
aI1091146
aI2098786
aI534094
aI252856
aI599635
aI403028
aI304725
aI665176
aI1386077
aI1680990
aI1590885
aI733456
aI173667
aI894565
aI1320550
aI1386087
aI1058408
aI75371
aI468589
aI2336367
aI435824
aI1517175
aI602388
aI2270843
aI435836
aI1148522
aI1812094
aI992895
aI566912
aI1678272
aI1943170
aI566915
aI992900
aI272007
aI575084
aI1910410
aI960142
aI1208600
aI763538
aI960147
aI960151
aI10149
aI1123994
aI1535549
aI75423
aI2107041
aI501411
aI1877668
aI730789
aI2041514
aI220103
aI796332
aI501422
aI566961
aI173747
aI827137
aI861880
aI534201
aI42682
aI41793
aI2238144
aI1353411
aI272071
aI1353416
aI1612748
aI1615562
aI2139851
aI1091276
aI1550031
aI2133490
aI534227
aI1418964
aI108245
aI1615574
aI1484504
aI1681115
aI1058524
aI1058526
aI728016
aI1124066
aI209190
aI42727
aI1582825
aI2172650
aI1255148
aI2074350
aI1877744
aI730865
aI1091315
aI2336505
aI1823551
aI438570
aI1943295
aI337665
aI75522
aI1058564
aI1320710
aI2270984
aI1814828
aI1778849
aI1910539
aI2238220
aI378498
aI1386254
aI733485
aI796435
aI2265519
aI435990
aI760793
aI1222424
aI2172700
aI853597
aI1301558
aI796449
aI1877795
aI1124132
aI2303783
aI1746731
aI1582892
aI2205491
aI1639229
aI2295434
aI1550142
aI1681215
aI1355518
aI1386307
aI1779525
aI1943369
aI1779531
aI477324
aI1713999
aI1119559
aI1910610
aI1845075
aI2115214
aI1353562
aI1247497
aI468829
aI427664
aI1255268
aI1127473
aI763750
aI444049
aI305000
aI1746793
aI1189738
aI468843
aI2271086
aI862063
aI698227
aI1189748
aI862081
aI468866
aI1550211
aI42885
aI1582982
aI829319
aI1451912
aI1760236
aI665482
aI796558
aI755352
aI1779603
aI121838
aI501655
aI718301
aI1803930
aI534430
aI468895
aI367600
aI460443
aI1091493
aI141222
aI1910695
aI42921
aI272300
aI993200
aI403379
aI1189813
aI731064
aI990196
aI460447
aI1026149
aI1615808
aI960449
aI2074563
aI1514486
aI370631
aI1943496
aI1323340
aI143223
aI1165387
aI2109773
aI1826891
aI1028430
aI1353686
aI1399801
aI1050276
aI403418
aI2271195
aI1580026
aI403423
aI468960
aI1583074
aI468964
aI1648613
aI1812455
aI564221
aI665586
aI651603
aI141300
aI1812472
aI2268159
aI1255422
aI2107391
aI894976
aI1525419
aI632837
aI2041868
aI239629
aI2304014
aI1681423
aI646147
aI43028
aI1845271
aI1681434
aI1448965
aI567328
aI1648673
aI665634
aI1910819
aI239652
aI2107432
aI370730
aI927787
aI1714221
aI1058862
aI1419311
aI1985108
aI1845299
aI1189942
aI1936159
aI1878072
aI927801
aI2336827
aI2140222
aI1962336
aI2256729
aI141383
aI1855359
aI2186252
aI1747018
aI1386571
aI567373
aI908301
aI1091664
aI2115256
aI1019459
aI1026132
aI2336853
aI600152
aI820922
aI1452126
aI174175
aI1158033
aI1386594
aI895076
aI305253
aI1760337
aI400789
aI731243
aI960620
aI1812589
aI796782
aI1574589
aI1222768
aI796787
aI2336884
aI895096
aI2339178
aI2304126
aI1452162
aI1878147
aI1450826
aI600198
aI1612823
aI2320088
aI43149
aI403603
aI10389
aI338070
aI1026199
aI647386
aI2336921
aI1091740
aI2107549
aI1910951
aI2042025
aI1943722
aI2272299
aI1976493
aI1353903
aI2238645
aI1803977
aI1910972
aI633021
aI10430
aI305343
aI731328
aI272577
aI1321155
aI1257846
aI1353926
aI1550537
aI43211
aI2238668
aI1157325
aI272592
aI2145336
aI1812691
aI1940516
aI600282
aI207067
aI927966
aI1170469
aI895203
aI1222884
aI220198
aI1771217
aI1911016
aI1279153
aI1681643
aI403692
aI2295506
aI1999299
aI1779953
aI1307006
aI1989673
aI993530
aI995711
aI764156
aI1976573
aI2009348
aI2238725
aI438657
aI305417
aI1255691
aI2337036
aI1072173
aI1485073
aI895253
aI993558
aI1190170
aI796955
aI764189
aI1452318
aI600353
aI1812770
aI427739
aI1714470
aI174375
aI1000499
aI1321258
aI1878315
aI174380
aI174381
aI1845551
aI633136
aI829745
aI1386803
aI796982
aI2169908
aI1419578
aI635389
aI1452348
aI1222973
aI305470
aI1607586
aI1943872
aI1849817
aI2009412
aI1648965
aI2206023
aI2093452
aI2238794
aI895309
aI960846
aI1943887
aI895312
aI141650
aI1240967
aI2271573
aI2107735
aI1943898
aI2206045
aI1911134
aI1091935
aI665952
aI1452387
aI372428
aI764261
aI1976678
aI764263
aI993641
aI2074986
aI338283
aI633196
aI495726
aI1321326
aI76147
aI2140534
aI174455
aI1190265
aI2337147
aI1288572
aI2336463
aI633215
aI300559
aI1517954
aI895364
aI405910
aI436617
aI207243
aI141713
aI2042258
aI2337171
aI1190293
aI2206102
aI1583513
aI2075034
aI1354139
aI2173340
aI749978
aI1976734
aI1563717
aI1286797
aI2262768
aI2238885
aI1026470
aI837361
aI1812905
aI862635
aI1812915
aI43444
aI1583541
aI384073
aI1976762
aI43451
aI2137162
aI1288642
aI2216441
aI1485252
aI1157573
aI403910
aI2271687
aI476919
aI1812942
aI2322281
aI993744
aI1255894
aI1279737
aI2107864
aI698841
aI1354373
aI2173405
aI174561
aI666082
aI165627
aI567781
aI469478
aI2009575
aI1223145
aI338410
aI1255915
aI1878509
aI1124847
aI1288692
aI1976821
aI272887
aI961016
aI908372
aI800156
aI10747
aI240124
aI1583615
aI502272
aI731651
aI764421
aI2173446
aI2042375
aI1845774
aI1124879
aI1288983
aI2042386
aI1371909
aI436758
aI1911320
aI553391
aI961052
aI2316828
aI247557
aI436768
aI2190257
aI240166
aI1976871
aI109096
aI1891420
aI1419820
aI141870
aI1681967
aI2304564
aI43573
aI272950
aI1780279
aI1092152
aI1780281
aI1124923
aI43583
aI1354304
aI240196
aI1550919
aI10824
aI1257911
aI1288780
aI666191
aI2271824
aI469586
aI141907
aI272980
aI535128
aI633433
aI1845850
aI2009691
aI1321564
aI1780317
aI1583710
aI338527
aI1092192
aI43617
aI1869467
aI1842278
aI567910
aI273000
aI2173546
aI1170535
aI876539
aI2108016
aI993905
aI1190517
aI1911414
aI1256055
aI2304634
aI1157756
aI935701
aI731776
aI600705
aI1845890
aI2115350
aI1146479
aI979393
aI76424
aI764555
aI1094766
aI305810
aI2140820
aI2304663
aI2140824
aI699033
aI1809519
aI1125021
aI1747614
aI515519
aI109220
aI961189
aI1682087
aI797359
aI2239154
aI1813172
aI106348
aI273078
aI1092280
aI961211
aI895676
aI600767
aI1099779
aI1126859
aI935713
aI338632
aI1780425
aI1551050
aI1387214
aI600783
aI2271952
aI1518295
aI1944281
aI1878746
aI2239195
aI371420
aI1181477
aI2206432
aI1691617
aI895717
aI436966
aI2042599
aI1288938
aI240363
aI2271981
aI1747695
aI2239217
aI666354
aI1682163
aI1267168
aI699126
aI928503
aI174840
aI502521
aI1054398
aI1006720
aI174850
aI961283
aI1485572
aI1878790
aI2350209
aI444204
aI1190668
aI466050
aI174864
aI1911570
aI1367171
aI1256215
aI384132
aI1846042
aI2140957
aI1420063
aI699171
aI109354
aI961324
aI1649453
aI994094
aI1682224
aI502577
aI1125170
aI2075446
aI1583927
aI1518392
aI1944377
aI64668
aI1077727
aI2042684
aI1715005
aI2304832
aI2306528
aI2206531
aI1059652
aI280374
aI2304838
aI586209
aI371528
aI1072268
aI1682250
aI1747787
aI142157
aI2251917
aI830292
aI11093
aI731990
aI666455
aI2173785
aI469850
aI1223515
aI2337631
aI2108258
aI886587
aI1682279
aI2123709
aI826514
aI2206574
aI1616751
aI1813360
aI174961
aI2304882
aI1813365
aI190227
aI875668
aI895868
aI11140
aI76677
aI1878920
aI405996
aI535435
aI1935170
aI142222
aI2075536
aI699281
aI1977235
aI600980
aI1110510
aI1026966
aI1023129
aI535448
aI1649562
aI830363
aI613530
aI43934
aI469919
aI633760
aI1059745
aI187547
aI2180934
aI43943
aI1121436
aI28007
aI1970953
aI502701
aI1542139
aI411464
aI1163517
aI1747892
aI1780661
aI371640
aI994234
aI633788
aI273344
aI1190849
aI1977282
aI371652
aI895941
aI273351
aI1868
aI1944524
aI2272206
aI1219747
aI2108373
aI1094137
aI994265
aI1654217
aI1886031
aI1944540
aI797664
aI1125345
aI732131
aI469988
aI1561499
aI1616870
aI2206695
aI2239464
aI11241
aI466087
aI568853
aI502767
aI1879025
aI732146
aI830451
aI306164
aI142326
aI994295
aI601080
aI568314
aI1781099
aI1879038
aI1420287
aI168409
aI1518595
aI1420292
aI1387525
aI2141190
aI1682440
aI830473
aI1361751
aI76813
aI601102
aI919384
aI896020
aI330467
aI666647
aI1870478
aI1813530
aI890738
aI306214
aI76840
aI832007
aI1879086
aI797745
aI109618
aI679091
aI470068
aI1279838
aI1223734
aI928824
aI1780795
aI1420349
aI2305086
aI240704
aI1059905
aI1110539
aI1256516
aI1256518
aI1001313
aI1944648
aI881164
aI1420365
aI2010190
aI1911892
aI2272342
aI1846359
aI273496
aI1902436
aI1191002
aI896092
aI1891428
aI182117
aI1485921
aI449723
aI2347399
aI109671
aI240747
aI273520
aI11377
aI76914
aI270979
aI11382
aI535671
aI142460
aI2305149
aI601214
aI1879167
aI1387648
aI531648
aI44162
aI1485955
aI1780870
aI1387655
aI1223817
aI371851
aI208012
aI1256589
aI2043024
aI2206865
aI1813650
aI339091
aI2108564
aI634005
aI1846422
aI273561
aI1715354
aI339100
aI569882
aI1289374
aI1518752
aI1911969
aI11428
aI339109
aI34673
aI1813672
aI1027241
aI371883
aI2010284
aI1289390
aI109748
aI470197
aI1902452
aI1944762
aI2075835
aI1846462
aI1181557
aI602656
aI1584322
aI1678539
aI961732
aI1649861
aI666823
aI797897
aI404685
aI44238
aI1580237
aI1148792
aI1682647
aI2206936
aI741167
aI601306
aI44251
aI11484
aI903838
aI1012261
aI634080
aI208097
aI2141411
aI1700390
aI1105105
aI2108648
aI1638169
aI601325
aI362638
aI2010355
aI2206966
aI1289463
aI1977593
aI437500
aI1038048
aI1387775
aI2239744
aI1715458
aI1092871
aI1682697
aI1191178
aI634124
aI1060109
aI1682702
aI371983
aI1781008
aI929041
aI2246531
aI1813781
aI470295
aI1748248
aI77081
aI2010395
aI1781022
aI372000
aI1322273
aI372002
aI400603
aI2010408
aI2075946
aI1256747
aI1649964
aI929072
aI208177
aI2108723
aI929079
aI175416
aI1431948
aI2338107
aI1551676
aI1453376
aI1355073
aI1748291
aI273732
aI1125703
aI601416
aI2272588
aI1617229
aI503118
aI1677453
aI1387858
aI646371
aI142676
aI798039
aI1977689
aI1650010
aI1197967
aI2286267
aI339297
aI2174306
aI1290811
aI1355108
aI1617255
aI961896
aI1995324
aI437611
aI1518957
aI503151
aI1944947
aI1813876
aI1486199
aI503160
aI1486201
aI1387899
aI77180
aI1551741
aI535934
aI667007
aI1915321
aI1650050
aI1977732
aI1935254
aI2044481
aI1420680
aI1486217
aI1584522
aI225858
aI1682830
aI109967
aI1617296
aI44437
aI175510
aI11671
aI2043289
aI273819
aI2260119
aI2076062
aI175519
aI329627
aI1224100
aI1159750
aI1453479
aI470443
aI1027501
aI830896
aI685619
aI1060274
aI154867
aI273844
aI1689502
aI1748407
aI1453500
aI1813951
aI536002
aI404931
aI404932
aI1913141
aI1289670
aI1650119
aI1846730
aI44493
aI929232
aI404946
aI1125844
aI1748437
aI1519066
aI1289694
aI142816
aI372193
aI2022651
aI404964
aI1748455
aI241132
aI110067
aI2239988
aI1289717
aI1027574
aI1879543
aI699896
aI699897
aI1191418
aI1924351
aI1486341
aI2108935
aI980227
aI110094
aI110095
aI437777
aI1849858
aI175635
aI34734
aI863766
aI353919
aI634397
aI1099696
aI110115
aI142886
aI2076199
aI2174505
aI470570
aI2338352
aI1682993
aI1125940
aI175674
aI1322557
aI862959
aI575413
aI1781313
aI386118
aI660528
aI2076234
aI1322574
aI1748561
aI994898
aI634451
aI962135
aI2174554
aI2240092
aI2174558
aI651877
aI1738683
aI1060453
aI1301777
aI1289832
aI536171
aI1846893
aI241262
aI2010735
aI1126002
aI1420915
aI1650292
aI1814133
aI896631
aI1760532
aI798330
aI831099
aI994941
aI449813
aI2305669
aI1486471
aI1748616
aI1355401
aI1912461
aI929422
aI2109071
aI2207376
aI1565186
aI1185257
aI1126038
aI536216
aI1289881
aI437916
aI77470
aI919493
aI1388197
aI69673
aI1846956
aI356978
aI1781425
aI471667
aI274100
aI1552054
aI1453754
aI1060541
aI1192565
aI1257154
aI2272964
aI1584838
aI2084457
aI208584
aI962250
aI11980
aI1263565
aI634576
aI601809
aI1486546
aI1715924
aI1181646
aI1978071
aI1388248
aI502319
aI700125
aI110302
aI352076
aI105148
aI667368
aI241385
aI1697107
aI1760551
aI1486573
aI1879791
aI591827
aI1979006
aI2010871
aI1388280
aI831225
aI175866
aI1257211
aI1388286
aI2207490
aI105771
aI1421061
aI995080
aI44810
aI1289995
aI1650445
aI1093390
aI536335
aI1912592
aI1748755
aI1794219
aI2141974
aI1847064
aI896795
aI1945372
aI1748766
aI728368
aI1486626
aI12067
aI372520
aI1683242
aI1153059
aI1421106
aI1781556
aI1650485
aI1191735
aI198988
aI1257273
aI2142012
aI2034269
aI1236277
aI765760
aI896833
aI1290052
aI2268470
aI1322822
aI143176
aI1748814
aI700239
aI1349040
aI864910
aI765782
aI2273112
aI1388378
aI503643
aI1027932
aI2142046
aI1355616
aI2142049
aI1193009
aI2305895
aI208744
aI2055484
aI2010988
aI503665
aI601970
aI372595
aI668176
aI1978231
aI405368
aI1421178
aI1322877
aI455317
aI143232
aI1847178
aI2257559
aI929680
aI733075
aI1879959
aI503705
aI2174875
aI307100
aI2235717
aI44960
aI798625
aI667554
aI1519524
aI1257381
aI804849
aI12200
aI1291316
aI2338731
aI2240430
aI700340
aI77750
aI875849
aI1847228
aI503741
aI313333
aI1176224
aI2301259
aI1585092
aI77765
aI1138559
aI1060811
aI110542
aI1985173
aI1044439
aI2174931
aI870393
aI2240472
aI1912796
aI2011101
aI1617886
aI389797
aI1912800
aI231419
aI2174950
aI110569
aI2174958
aI765935
aI1617905
aI1585140
aI1388536
aI110586
aI503803
aI1060860
aI488106
aI1804047
aI2248137
aI962564
aI1912839
aI1716232
aI77834
aI569355
aI1650700
aI1126416
aI339985
aI438291
aI397687
aI438293
aI339990
aI962583
aI1224729
aI176155
aI962589
aI2338846
aI1247237
aI788206
aI286043
aI2011172
aI1028133
aI372774
aI996017
aI1126440
aI1858908
aI1945642
aI1945643
aI1126444
aI635570
aI831534
aI1224751
aI307248
aI1683505
aI1552435
aI733237
aI208951
aI1962676
aI208955
aI2338876
aI1394698
aI340033
aI2109506
aI241731
aI2279782
aI962630
aI1454152
aI1814602
aI1520311
aI1388620
aI569421
aI1697119
aI1088867
aI503894
aI127674
aI12385
aI580966
aI1257574
aI602215
aI2011240
aI1159273
aI2338923
aI733299
aI603037
aI864374
aI1858921
aI2076792
aI324287
aI405629
aI1755157
aI1028800
aI2017302
aI340102
aI78529
aI2170220
aI1161376
aI433517
aI962705
aI1578188
aI236910
aI1683607
aI897177
aI274587
aI1368721
aI2076832
aI241825
aI1812438
aI1290404
aI471205
aI2240681
aI602282
aI536750
aI1749167
aI622359
aI2273462
aI160457
aI78010
aI2273467
aI798908
aI2044093
aI2273470
aI1257663
aI1028288
aI2279456
aI1162469
aI569542
aI110794
aI274635
aI1945806
aI372944
aI2279459
aI1421524
aI2044118
aI1880279
aI766168
aI536794
aI1077967
aI766172
aI1498490
aI274654
aI2077392
aI1028322
aI733411
aI1684177
aI1257705
aI1781994
aI1781996
aI1082259
aI995567
aI2207987
aI831733
aI1782006
aI1427497
aI1782013
aI1880318
aI438527
aI1487106
aI297003
aI897284
aI1585878
aI1244306
aI2110167
aI1257740
aI2273549
aI1782032
aI831761
aI1847571
aI1569773
aI766229
aI766233
aI438554
aI1585435
aI209185
aI504100
aI405797
aI45350
aI307932
aI1028394
aI1421611
aI1323308
aI569645
aI45358
aI1187813
aI1093937
aI821299
aI2011445
aI143671
aI635192
aI1192258
aI2208067
aI986459
aI2109770
aI1978700
aI357090
aI635214
aI700753
aI405843
aI2111757
aI1607737
aI1296442
aI2306401
aI897379
aI733542
aI110952
aI864617
aI1257834
aI1421681
aI197916
aI2339192
aI2326509
aI504188
aI766333
aI1449365
aI373120
aI134947
aI504195
aI45445
aI612546
aI504204
aI1028494
aI2109840
aI995731
aI438677
aI1651094
aI1645977
aI1487257
aI1749402
aI962973
aI242078
aI1651103
aI831906
aI1744283
aI2077093
aI2175398
aI1119329
aI531868
aI12715
aI1880492
aI1651117
aI584178
aI504242
aI1651123
aI1366447
aI471477
aI1574985
aI2011577
aI355136
aI1913276
aI766397
aI602560
aI340418
aI657483
aI1123197
aI143816
aI985164
aI1257931
aI405964
aI718388
aI1585618
aI1225171
aI733653
aI1848799
aI1749466
aI1978843
aI1159645
aI799200
aI864738
aI1651173
aI1946087
aI2142697
aI831980
aI78317
aI143854
aI1782258
aI406008
aI1978873
aI2011645
aI78335
aI1815040
aI1094148
aI1192453
aI2339334
aI422657
aI864776
aI143883
aI1356300
aI2109965
aI1421838
aI1056173
aI700944
aI1807338
aI668181
aI51289
aI1323544
aI1585690
aI1716763
aI406045
aI537120
aI2306593
aI2273826
aI1258020
aI1552933
aI995879
aI930344
aI116828
aI919159
aI340525
aI864821
aI832055
aI1159736
aI471611
aI602686
aI209471
aI1389121
aI209474
aI335286
aI799302
aI2306631
aI176717
aI111182
aI1662957
aI378979
aI1356372
aI897622
aI1585754
aI1487452
aI1880671
aI434699
aI1258081
aI668258
aI340580
aI766565
aI1684071
aI2339434
aI1258092
aI1684077
aI2108493
aI2077297
aI2126611
aI892350
aI1837893
aI1094265
aI1159803
aI1159804
aI1913470
aI930431
aI1946240
aI1258116
aI1651478
aI239388
aI12937
aI1979021
aI1847950
aI51309
aI815896
aI45716
aI209558
aI733847
aI635550
aI1061535
aI537248
aI591984
aI471714
aI1553060
aI21163
aI1966648
aI2142888
aI2011818
aI843207
aI242351
aI2273968
aI646600
aI438962
aI1913525
aI1258166
aI45751
aI897721
aI2339514
aI1389244
aI2208447
aI1159872
aI1454785
aI1028805
aI45767
aI1419699
aI1236428
aI1028810
aI537293
aI602831
aI1880784
aI1585873
aI946963
aI1356502
aI264313
aI635608
aI701146
aI1061595
aI799452
aI275237
aI1716960
aI2084492
aI275171
aI209641
aI681299
aI799468
aI1520366
aI1028848
aI1484371
aI1105363
aI963316
aI1046828
aI1662420
aI608383
aI946986
aI969358
aI144128
aI411776
aI1093392
aI406277
aI1291014
aI1717002
aI701195
aI1684236
aI2328706
aI537358
aI275217
aI635666
aI2011923
aI930581
aI144150
aI1749783
aI2143001
aI799514
aI2274076
aI2306845
aI963358
aI701215
aI602912
aI1454885
aI1782569
aI963370
aI903303
aI1258285
aI1848111
aI275248
aI930611
aI897844
aI1875422
aI78644
aI1192766
aI1880900
aI144199
aI2017420
aI1815370
aI832331
aI2110284
aI1946445
aI1769159
aI275280
aI439122
aI333232
aI734036
aI1542286
aI2274134
aI2011961
aI1356633
aI666027
aI2274142
aI597477
aI865121
aI1323874
aI2316907
aI701284
aI1525905
aI1291114
aI471915
aI2339693
aI811883
aI1826280
aI865139
aI291646
aI1127286
aI1422199
aI635775
aI2339713
aI1684356
aI100502
aI144266
aI1553292
aI2339726
aI1170925
aI832401
aI1160082
aI1684373
aI1225622
aI373658
aI1034394
aI209822
aI2171859
aI1848224
aI1389475
aI1471302
aI1684392
aI78761
aI2305358
aI603053
aI1029038
aI432528
aI2044851
aI105972
aI1586112
aI209739
aI1236470
aI1684425
aI1815500
aI1706146
aI1291215
aI898003
aI635862
aI275415
aI472024
aI1520604
aI957946
aI439263
aI1078096
aI668645
aI1038107
aI701417
aI1651690
aI668651
aI1389550
aI1842685
aI1389553
aI1324018
aI1029110
aI439287
aI2110456
aI275449
aI1192954
aI1684475
aI2012156
aI1995605
aI1192960
aI603138
aI2307076
aI1684485
aI976829
aI1094663
aI2224983
aI1207307
aI482723
aI1127438
aI1100377
aI304869
aI832533
aI275480
aI122372
aI1717274
aI1455133
aI1170949
aI111648
aI275490
aI635943
aI1926289
aI2274349
aI734254
aI275503
aI472112
aI504881
aI886963
aI2307124
aI1750070
aI2317833
aI2334218
aI504894
aI1324101
aI701510
aI457629
aI799818
aI1815627
aI13390
aI472143
aI1946705
aI996435
aI1651796
aI493753
aI2172886
aI1782628
aI1815642
aI1750107
aI1094752
aI1291361
aI2045026
aI406628
aI2208871
aI13420
aI155154
aI1946734
aI1061999
aI1062000
aI472178
aI122387
aI1717365
aI603254
aI537719
aI275576
aI1400367
aI494368
aI242816
aI701570
aI1127560
aI2012298
aI744983
aI668812
aI111758
aI275601
aI1914002
aI2274451
aI177300
aI308375
aI2176152
aI1116356
aI2339994
aI1553563
aI472222
aI2176159
aI1848480
aI963746
aI963749
aI2340008
aI111967
aI701616
aI1356987
aI996540
aI1258687
aI668864
aI1258691
aI1127620
aI2274501
aI2077895
aI865481
aI1520842
aI1651915
aI1389773
aI2340051
aI2340052
aI641230
aI1080669
aI46296
aI1946841
aI570586
aI2340059
aI46300
aI619386
aI2077921
aI931042
aI1488100
aI2274534
aI1488105
aI2241770
aI2340075
aI1357039
aI963824
aI1525971
aI701684
aI2209014
aI2077945
aI505082
aI996223
aI2209020
aI466474
aI1291518
aI1446199
aI1225986
aI2143491
aI1657046
aI1094529
aI1980853
aI1750282
aI1149143
aI2061186
aI2176270
aI1875501
aI603408
aI1651985
aI1586450
aI1389845
aI963862
aI1848601
aI1717530
aI1498671
aI2176284
aI1094942
aI1422213
aI1946912
aI1357091
aI1717541
aI2294213
aI280796
aI1501848
aI2209067
aI1062188
aI1702897
aI996655
aI1433107
aI2307381
aI902818
aI843316
aI1717562
aI1389884
aI341309
aI2209086
aI341311
aI1160515
aI931141
aI603464
aI1176460
aI898380
aI1455439
aI368184
aI2110804
aI253497
aI308569
aI472410
aI2257807
aI2176348
aI1946975
aI2225040
aI1826363
aI1684836
aI1842748
aI144747
aI374124
aI2126738
aI767344
aI987339
aI734582
aI275832
aI1635220
aI13691
aI865662
aI406911
aI1296619
aI570262
aI2214359
aI1318465
aI832904
aI1848714
aI46475
aI2241932
aI1947022
aI2144527
aI634403
aI2788
aI1793603
aI1357204
aI406933
aI505239
aI1362187
aI2066671
aI1357212
aI1373082
aI1941061
aI472481
aI1422755
aI2307492
aI1575153
aI1374688
aI1062313
aI1127850
aI564807
aI2110892
aI79278
aI635805
aI2012594
aI374195
aI241069
aI79290
aI996799
aI2273419
aI1455553
aI2176451
aI636356
aI144840
aI908876
aI308682
aI2230519
aI374231
aI471827
aI2061220
aI1515087
aI2190357
aI1258974
aI2192293
aI820989
aI570852
aI343359
aI1193446
aI1580625
aI1160680
aI1390060
aI2110957
aI1947121
aI1029239
aI2078201
aI243196
aI1869566
aI46595
aI1619460
aI767493
aI1652230
aI1673473
aI308744
aI2045451
aI1848844
aI1685007
aI701970
aI2209299
aI407064
aI1586716
aI46621
aI243231
aI1979940
aI1259045
aI1029670
aI472615
aI1624327
aI1291822
aI13871
aI1160752
aI1062449
aI1914418
aI2307635
aI439861
aI767542
aI1181961
aI1553977
aI374330
aI1127997
aI2012738
aI2075596
aI177732
aI964165
aI1819649
aI374343
aI1390154
aI46667
aI1586767
aI636496
aI1488468
aI373689
aI996952
aI2121316
aI881594
aI1816158
aI2242144
aI210530
aI1521253
aI1848934
aI865895
aI1390187
aI2143853
aI2111086
aI308847
aI2012785
aI1259126
aI2006633
aI800377
aI1160827
aI1742999
aI2274943
aI472705
aI374403
aI46724
aI1128069
aI112264
aI2111113
aI177802
aI308875
aI800396
aI538253
aI1585877
aI1373123
aI2045588
aI865942
aI2296089
aI999998
aI1128092
aI2148634
aI1423006
aI1128095
aI472736
aI728688
aI362779
aI1029796
aI869718
aI538279
aI1619625
aI2111151
aI1619634
aI276147
aI505524
aI1423031
aI1974371
aI243385
aI407229
aI1324735
aI2176706
aI1913804
aI505546
aI734923
aI964301
aI472782
aI440015
aI1652432
aI1783505
aI472786
aI2222008
aI1521366
aI79575
aI2077979
aI2209497
aI374490
aI1684431
aI1226460
aI833245
aI2236459
aI1881823
aI308960
aI1881825
aI1980130
aI505571
aI606976
aI2111208
aI1488618
aI964331
aI619474
aI1717998
aI2137725
aI1816305
aI2012914
aI14067
aI1128180
aI1498750
aI1362217
aI2209531
aI1824233
aI1059368
aI866058
aI1423115
aI472854
aI300589
aI997146
aI1521437
aI2307874
aI2012963
aI1226534
aI145191
aI1209309
aI2111284
aI1029943
aI1193784
aI2176825
aI1029087
aI767806
aI276290
aI767811
aI1587014
aI1029959
aI1292104
aI603981
aI1226575
aI571219
aI51513
aI571226
aI2078556
aI2044901
aI669536
aI1613456
aI2013026
aI2078563
aI309092
aI1358929
aI1029991
aI2176872
aI145258
aI1918679
aI2121363
aI180509
aI1423222
aI2252436
aI2275194
aI652266
aI604959
aI1521537
aI1291243
aI1390470
aI2050369
aI1733612
aI571274
aI1220247
aI1362242
aI800655
aI2111376
aI1685394
aI1521557
aI997273
aI571290
aI1914780
aI1236634
aI2078622
aI1750943
aI2308000
aI1652643
aI1500778
aI604070
aI1849255
aI1329479
aI407470
aI73373
aI1449979
aI1456052
aI1160346
aI145337
aI79802
aI56991
aI1193919
aI1161152
aI669633
aI407490
aI178115
aI2144197
aI407494
aI1128391
aI473032
aI919884
aI1488842
aI833485
aI1030095
aI1456082
aI36483
aI1613166
aI735190
aI243672
aI1269412
aI1128410
aI1812843
aI473052
aI1259487
aI702432
aI1624400
aI1422483
aI1176571
aI2013156
aI1259494
aI996348
aI964587
aI1950326
aI1325045
aI538615
aI444756
aI2144250
aI767996
aI1859242
aI1488895
aI1423361
aI1128450
aI866307
aI366418
aI89772
aI309258
aI1925231
aI2013196
aI1292301
aI1456144
aI1456146
aI47124
aI1882133
aI833561
aI1030170
aI1571749
aI702494
aI210981
aI1062951
aI2308136
aI342057
aI669738
aI1947692
aI1187506
aI2078768
aI1030195
aI2230622
aI1023569
aI1554487
aI1652792
aI2340921
aI1521722
aI1640799
aI2059579
aI571454
aI1147257
aI342082
aI964675
aI374852
aI2340933
aI964679
aI571464
aI1194059
aI997453
aI2290701
aI1751122
aI2340947
aI974521
aI1751129
aI1587293
aI1030240
aI1620067
aI1128548
aI641382
aI1684497
aI2242667
aI1260736
aI1095792
aI1722728
aI1914994
aI1587315
aI1174537
aI1629886
aI1489015
aI1349597
aI505977
aI211070
aI1012757
aI342145
aI1751170
aI866435
aI800901
aI342150
aI47240
aI637067
aI739177
aI211088
aI1225752
aI800915
aI1640814
aI1366847
aI1662660
aI2247023
aI1849500
aI1553434
aI145567
aI997536
aI932004
aI1292457
aI840653
aI1089223
aI2224206
aI1194157
aI1652910
aI1012765
aI112817
aI1489074
aI1816756
aI717619
aI2341051
aI1816765
aI2275518
aI612653
aI932034
aI1731016
aI80069
aI2046152
aI1259723
aI1947852
aI2046157
aI1161423
aI2210000
aI1362296
aI1161429
aI1943787
aI14552
aI866522
aI1554653
aI2210014
aI699899
aI1489121
aI1818539
aI1325285
aI843473
aI1358056
aI1395068
aI2323501
aI571632
aI801009
aI1685746
aI178421
aI2013431
aI1325306
aI35199
aI1915132
aI801021
aI1849598
aI1915135
aI1292544
aI2034048
aI1161474
aI735491
aI2046212
aI1390853
aI1128710
aI997639
aI1594627
aI2078985
aI2013451
aI375052
aI2308365
aI309518
aI1685775
aI637200
aI47378
aI2345347
aI2046228
aI1718550
aI1220370
aI276766
aI932127
aI112931
aI407844
aI1751335
aI440617
aI342322
aI2046260
aI47413
aI47414
aI1128759
aI406580
aI1325370
aI1915195
aI2308413
aI1194303
aI2341185
aI1489220
aI735557
aI2079046
aI14665
aI112970
aI932171
aI2210126
aI870119
aI506193
aI1554770
aI1980755
aI466278
aI1882453
aI1718614
aI244059
aI1679077
aI145760
aI899425
aI899426
aI2249775
aI1751403
aI788882
aI866670
aI1685871
aI735600
aI742458
aI1292660
aI571765
aI1784182
aI637304
aI2144634
aI2186986
aI932224
aI604545
aI440707
aI2111879
aI113032
aI440713
aI1161611
aI2308494
aI211344
aI768401
aI375189
aI2111894
aI2013591
aI375192
aI455748
aI1810159
aI1309847
aI641434
aI1325474
aI80291
aI2176070
aI1123227
aI428444
aI571822
aI1864148
aI1325489
aI7923
aI539061
aI113078
aI1423801
aI736388
aI1423803
aI473534
aI1149269
aI539075
aI1128900
aI2111943
aI14792
aI2013641
aI1849802
aI899531
aI1918729
aI866767
aI211408
aI1948113
aI1784275
aI2013652
aI1325525
aI1984932
aI2210267
aI145886
aI1489375
aI702944
aI2138017
aI1629947
aI997860
aI1685989
aI375271
aI1358315
aI670188
aI1096173
aI1325550
aI702961
aI373843
aI1817079
aI1554936
aI2142846
aI276991
aI932352
aI1260033
aI1817090
aI1886635
aI1817092
aI1589873
aI866823
aI1657260
aI1784333
aI1489423
aI211472
aI640588
aI768532
aI1684569
aI1291354
aI2243103
aI2246041
aI1948193
aI997923
aI1227302
aI2197937
aI375337
aI1980971
aI2308654
aI997935
aI1784369
aI342578
aI113207
aI703032
aI2079290
aI1237869
aI1030718
aI408127
aI1358401
aI178754
aI1646347
aI244296
aI1882697
aI604748
aI1358415
aI1981010
aI226403
aI2308692
aI188174
aI211542
aI788921
aI1063512
aI1686106
aI2308700
aI1325661
aI1817183
aI1292896
aI1784421
aI801386
aI80491
aI440940
aI1875730
aI1948271
aI2275953
aI1161843
aI1290069
aI1555063
aI2243192
aI408186
aI998011
aI506493
aI80511
aI735872
aI1447337
aI1587844
aI2219798
aI506502
aI78956
aI204567
aI1260174
aI2110573
aI1194640
aI375441
aI1194645
aI532249
aI801432
aI539289
aI1456794
aI47771
aI1915548
aI309921
aI244386
aI1391267
aI1325733
aI899750
aI1522343
aI1915560
aI2316969
aI2112171
aI178861
aI1522352
aI1828143
aI1194674
aI1979507
aI1860877
aI213749
aI1358521
aI47803
aI1378762
aI2210495
aI286496
aI2276034
aI211652
aI932551
aI309960
aI211658
aI2290807
aI2079438
aI455800
aI1751762
aI1915603
aI1287407
aI2170660
aI209814
aI2318117
aI932578
aI441060
aI352038
aI1227494
aI1100241
aI2079465
aI1850090
aI637679
aI335656
aI1194738
aI867062
aI1253161
aI461268
aI1227516
aI623538
aI15104
aI408321
aI2198039
aI539402
aI1935831
aI2177804
aI506641
aI1030933
aI1686294
aI2243351
aI768793
aI401199
aI1596827
aI1045637
aI1260320
aI1784609
aI1702667
aI376944
aI1194794
aI2290823
aI998189
aI1719086
aI801584
aI1686321
aI1817395
aI1489716
aI1391415
aI637757
aI1227582
aI827189
aI838112
aI537739
aI539460
aI179015
aI1489736
aI1063754
aI1456971
aI834381
aI1653582
aI1063760
aI2046802
aI2177875
aI2108587
aI401209
aI1772004
aI2210652
aI1162077
aI834399
aI1653601
aI1489764
aI2341735
aI1850216
aI1329639
aI965485
aI1391475
aI2243444
aI80757
aI1705943
aI211833
aI703354
aI834429
aI736128
aI637825
aI1937263
aI1031044
aI736133
aI941889
aI1719178
aI2243467
aI1620877
aI2145166
aI1553560
aI778051
aI2112405
aI1799321
aI2046873
aI1883035
aI1293213
aI1358751
aI834464
aI297456
aI1031076
aI1007430
aI2210727
aI1948585
aI1784748
aI994528
aI2177967
aI2079665
aI1588146
aI113587
aI768948
aI1974089
aI2046904
aI1031097
aI900026
aI113595
aI932798
aI179135
aI310208
aI2176160
aI2309058
aI834499
aI1551249
aI2243528
aI1653705
aI559607
aI1129420
aI1031120
aI625144
aI1031123
aI801750
aI1162199
aI2058178
aI703452
aI1526266
aI1620958
aI1817569
aI703658
aI1784810
aI1850347
aI1522670
aI1948657
aI1031154
aI581459
aI900085
aI1686520
aI801785
aI1941333
aI1850371
aI2145284
aI572422
aI998407
aI1701036
aI506890
aI1981452
aI1686544
aI1391634
aI1686547
aI1358868
aI834583
aI1719323
aI1031196
aI2276382
aI2284308
aI736292
aI1695271
aI1555494
aI306029
aI1391656
aI769069
aI368477
aI277552
aI2079793
aI113714
aI171870
aI48182
aI179255
aI900152
aI1031225
aI670779
aI277564
aI506941
aI80959
aI2145344
aI670785
aI1555524
aI146501
aI794465
aI1840159
aI1083916
aI932939
aI1391692
aI441425
aI237411
aI1948757
aI2145366
aI1031255
aI1293400
aI1948765
aI801889
aI368486
aI925793
aI2145384
aI1579380
aI408682
aI1916012
aI1755666
aI703598
aI81008
aI932978
aI1204073
aI1686648
aI1242303
aI1588352
aI1752193
aI113794
aI179331
aI670852
aI212101
aI81032
aI1793900
aI1391755
aI1076566
aI912701
aI878876
aI375960
aI2110660
aI539804
aI2017818
aI801951
aI769186
aI212131
aI867492
aI1653925
aI703655
aI605353
aI670890
aI1455303
aI146604
aI892786
aI1785006
aI2329117
aI1359024
aI1064114
aI237427
aI1031349
aI310454
aI2014391
aI638136
aI343225
aI2045130
aI1555647
aI2178240
aI539842
aI408773
aI1096902
aI1555657
aI933066
aI1552105
aI1555660
aI343245
aI1621203
aI146648
aI914639
aI1981661
aI769247
aI376032
aI2258067
aI212197
aI1031400
aI2299318
aI2001447
aI867564
aI81133
aI1195248
aI1147297
aI1733843
aI2329129
aI48377
aI1817850
aI1662847
aI1948924
aI1129725
aI965886
aI1752319
aI179457
aI1587023
aI179460
aI310533
aI1018412
aI1686794
aI834827
aI2047244
aI15630
aI179471
aI1264049
aI998674
aI1679235
aI2342164
aI1129749
aI1129750
aI343319
aI2112792
aI1457433
aI1031450
aI802075
aI2145565
aI245024
aI1752353
aI441636
aI507175
aI212264
aI1916201
aI1162541
aI867631
aI900402
aI1930462
aI1875849
aI1133108
aI113979
aI1359164
aI1621311
aI2173403
aI2243909
aI1555786
aI2243915
aI1424716
aI2342221
aI539984
aI81234
aI605523
aI736596
aI884338
aI373988
aI2211162
aI1645947
aI1555804
aI638301
aI1064286
aI1523039
aI1228129
aI671074
aI985659
aI2342244
aI1949032
aI1981802
aI1883501
aI343406
aI867695
aI1850737
aI1260916
aI2112885
aI2211190
aI849129
aI1883512
aI679828
aI2276734
aI1162623
aI15744
aI966018
aI1619179
aI114052
aI2047367
aI567912
aI966026
aI1392011
aI2309517
aI2342286
aI1752464
aI1040280
aI1719702
aI671128
aI736665
aI81307
aI2145692
aI572830
aI441760
aI15777
aI1523106
aI483227
aI1355709
aI2211242
aI1490347
aI2342316
aI2276783
aI114097
aI1424818
aI321318
aI603380
aI998842
aI474560
aI671171
aI1490372
aI998853
aI2145735
aI736713
aI146891
aI1031628
aI966093
aI1752527
aI638416
aI343505
aI2191516
aI572883
aI135827
aI2244053
aI376279
aI2285476
aI1531813
aI867809
aI376292
aI212455
aI1447366
aI2113002
aI614311
aI1261036
aI605677
aI2340093
aI1031664
aI376305
aI805459
aI638453
aI1089449
aI1850873
aI1953651
aI1162748
aI1064445
aI401323
aI1981956
aI769542
aI1651969
aI638474
aI849154
aI1544478
aI179731
aI2080276
aI1785365
aI2320706
aI2113048
aI966169
aI572956
aI1654301
aI441887
aI1261089
aI2014754
aI114211
aI2280771
aI1490473
aI1949228
aI892850
aI48686
aI1949231
aI835120
aI507441
aI1785396
aI1195573
aI441910
aI1130039
aI2244155
aI81468
aI341258
aI343615
aI2080320
aI1719875
aI1916485
aI1326665
aI1695671
aI769613
aI210189
aI966224
aI474706
aI2113108
aI573014
aI802393
aI1293914
aI1897743
aI2178653
aI704096
aI474722
aI162019
aI1858759
aI147052
aI409198
aI540271
aI704112
aI871016
aI343668
aI1122238
aI526457
aI1490555
aI1359484
aI1425021
aI1687167
aI2211456
aI1949314
aI1261187
aI2080388
aI1235692
aI1490568
aI2211465
aI1057838
aI867981
aI1526381
aI1359505
aI835219
aI1392276
aI1172407
aI1766681
aI442008
aI1195674
aI1346159
aI48796
aI51824
aI1556131
aI474789
aI821873
aI2211496
aI1613767
aI1752749
aI1916592
aI1886007
aI1523378
aI1357086
aI1180046
aI212664
aI900793
aI1031870
aI409279
aI1359554
aI1457860
aI2214519
aI2277068
aI1949392
aI48851
aI1326804
aI516046
aI1355719
aI263498
aI559738
aI2014945
aI1326818
aI999144
aI1359597
aI278255
aI311024
aI1457908
aI1261303
aI1916665
aI835322
aI2014977
aI245508
aI778198
aI1518299
aI1261321
aI2014989
aI1228558
aI1062207
aI1195796
aI999194
aI589748
aI849437
aI114461
aI2047774
aI2192688
aI540452
aI507685
aI999207
aI311080
aI434808
aI753418
aI2244395
aI180013
aI2178864
aI1326897
aI1490745
aI1916730
aI1545579
aI1720125
aI2309951
aI1163073
aI835394
aI1022928
aI376646
aI180042
aI802636
aI2080592
aI114513
aI1122275
aI1493646
aI1668409
aI1294170
aI966491
aI1701178
aI2138085
aI1949538
aI122854
aI1916774
aI1193276
aI2106259
aI376687
aI2047856
aI1523571
aI638839
aI212858
aI1621883
aI2334698
aI1425278
aI1228671
aI1425280
aI966530
aI286699
aI1772182
aI2342793
aI278410
aI1818507
aI311182
aI1843181
aI1225789
aI1378639
aI30019
aI2178964
aI1884053
aI81815
aI1032092
aI2211742
aI81823
aI367162
aI1621925
aI671655
aI1982378
aI1130411
aI1982380
aI49071
aI1195952
aI2244529
aI409525
aI114615
aI2244537
aI952991
aI1458108
aI1458110
aI1974261
aI1949633
aI1725620
aI868294
aI1654728
aI1884105
aI49099
aI573390
aI1195984
aI2146257
aI420191
aI746877
aI1946029
aI114655
aI1589216
aI974843
aI1425381
aI2291467
aI1455441
aI573416
aI2080747
aI2244591
aI1720305
aI1327091
aI1032182
aI199337
aI1327096
aI1652052
aI130389
aI1196028
aI2034346
aI1753086
aI1720319
aI901123
aI2151163
aI835593
aI442378
aI2080779
aI1231533
aI573456
aI1433603
aI2088969
aI1163285
aI2244630
aI49175
aI442393
aI1327131
aI147485
aI417797
aI213025
aI114725
aI81958
aI1818663
aI1163304
aI1471836
aI2342954
aI1840179
aI245806
aI868400
aI376882
aI344115
aI1130548
aI368649
aI1032248
aI363188
aI180282
aI2012511
aI466954
aI376894
aI933951
aI573505
aI1065026
aI1482763
aI573508
aI1353549
aI2078049
aI999496
aI704587
aI1097806
aI1458255
aI2146385
aI2179159
aI1630223
aI180316
aI1439519
aI2244703
aI147552
aI1359969
aI311396
aI1917029
aI1753190
aI390077
aI1589357
aI1130606
aI114800
aI1294449
aI1556595
aI1130612
aI802933
aI770170
aI2146427
aI1785981
aI1360000
aI311425
aI1032322
aI1523843
aI1753223
aI2105367
aI868495
aI1228946
aI1917076
aI639125
aI16535
aI1360024
aI1261725
aI1130655
aI835744
aI1032355
aI16550
aI606375
aI934057
aI1523884
aI2146477
aI1654959
aI835760
aI1297096
aI802994
aI1097907
aI802996
aI213174
aI314057
aI2015416
aI344250
aI16571
aI2251553
aI278720
aI1261764
aI475333
aI540871
aI2185803
aI868561
aI1392850
aI2212051
aI606422
aI2247169
aI5566
aI1917146
aI1261792
aI1229025
aI835810
aI278755
aI2015460
aI999654
aI1720551
aI1794087
aI1491181
aI2212078
aI213235
aI934132
aI442616
aI835837
aI1542869
aI2015488
aI2081025
aI868611
aI1360132
aI1985238
aI1917191
aI1523976
aI311561
aI1720586
aI1460951
aI934156
aI2310414
aI1720591
aI214416
aI390531
aI704790
aI1542873
aI999705
aI1720602
aI2015515
aI409884
aI2048285
aI2081057
aI1392930
aI1163556
aI2081061
aI49450
aI508205
aI311600
aI1098033
aI991283
aI1950007
aI2072628
aI1196347
aI868668
aI357770
aI1556798
aI1630261
aI1163584
aI1360194
aI406923
aI1576148
aI409926
aI934218
aI1989883
aI423309
aI969443
aI1491284
aI1818965
aI1261911
aI999768
aI213337
aI790868
aI344411
aI999773
aI1795466
aI1907176
aI1032545
aI967011
aI1720676
aI1458534
aI2047108
aI934252
aI2244975
aI1196403
aI1032565
aI619924
aI2048378
aI1022947
aI999809
aI1100523
aI377221
aI246151
aI1656218
aI1559276
aI246154
aI672142
aI2146704
aI858187
aI1925187
aI1163674
aI1524123
aI1458588
aI82340
aI406940
aI2245034
aI1917518
aI2048429
aI2146736
aI221256
aI1198835
aI1950132
aI180661
aI2015670
aI106569
aI396020
aI1655226
aI967100
aI1097146
aI2048449
aI1171531
aI1819076
aI1848737
aI2334796
aI1360331
aI770510
aI704975
aI1098192
aI2296568
aI1684899
aI2146772
aI147925
aI2332306
aI1819095
aI1753560
aI82395
aI475612
aI836062
aI1524192
aI1244077
aI2198267
aI573925
aI901608
aI16874
aI1655275
aI1923133
aI1163761
aI16882
aI1294836
aI2139177
aI1589751
aI311800
aI2269268
aI147963
aI1327614
aI1318997
aI901634
aI1262083
aI1843286
aI868871
aI1521068
aI1196555
aI873619
aI639502
aI390573
aI1917456
aI1163793
aI246290
aI543139
aI788359
aI2277909
aI82454
aI475671
aI2245144
aI1619339
aI1160623
aI2245148
aI2277917
aI1819166
aI893019
aI1287006
aI16933
aI639531
aI1950252
aI1655341
aI2343470
aI41053
aI1851953
aI259666
aI2212405
aI1950265
aI1327674
aI246331
aI1458750
aI803392
aI1389767
aI2015813
aI2245190
aI868935
aI1259729
aI574030
aI2146895
aI541264
aI442962
aI1720915
aI2015828
aI1819222
aI1065559
aI1131096
aI270436
aI2081375
aI1786464
aI1786465
aI115300
aI1313553
aI914876
aI836202
aI1269863
aI442988
aI1073147
aI1524336
aI246385
aI1350789
aI1917555
aI475765
aI1852022
aI705145
aI344699
aI934524
aI279166
aI705152
aI1360515
aI508548
aI1294983
aI1393292
aI541326
aI639631
aI2310800
aI705169
aI49811
aI377492
aI2015894
aI685508
aI792728
aI1098395
aI232218
aI344734
aI1229471
aI352368
aI1786534
aI148136
aI578867
aI1295019
aI1819309
aI1032880
aI49843
aI17077
aI148151
aI1393337
aI1000123
aI344765
aI1524414
aI574145
aI803525
aI637789
aI17095
aI1852107
aI836300
aI869072
aI1491668
aI803543
aI357839
aI1884893
aI1786591
aI803553
aI770786
aI803555
aI1078737
aI574185
aI1295082
aI1393387
aI475885
aI303229
aI1983217
aI1458932
aI463623
aI1393398
aI1622775
aI1865172
aI1884922
aI722899
aI1327872
aI925824
aI803586
aI1819395
aI836365
aI2016014
aI1461037
aI1950480
aI1950481
aI1327892
aI1521113
aI1753883
aI393379
aI1262375
aI2278185
aI1327915
aI1065772
aI1968946
aI148270
aI1308125
aI2179889
aI246578
aI246580
aI705333
aI181046
aI1459000
aI574266
aI1426235
aI1459004
aI1000257
aI377666
aI204939
aI508743
aI803656
aI57484
aI377675
aI705356
aI1229645
aI1295182
aI2258403
aI344916
aI530863
aI1248057
aI2311003
aI738140
aI1115709
aI377695
aI854929
aI672609
aI967522
aI2343781
aI1248060
aI476010
aI148333
aI672622
aI2114416
aI980456
aI479336
aI2016117
aI1655672
aI1131388
aI32218
aI1590145
aI1360770
aI148356
aI2147205
aI527169
aI1258988
aI1852298
aI312204
aI2048912
aI344978
aI2313027
aI770965
aI82839
aI1164186
aI246684
aI902046
aI1379141
aI1721248
aI2278305
aI2212772
aI2180005
aI685553
aI1819561
aI1131435
aI2048940
aI2089117
aI1328048
aI115633
aI902066
aI82867
aI2180020
aI1295285
aI1328055
aI1976139
aI1360829
aI1295297
aI934850
aI803781
aI50118
aI2163807
aI181192
aI377801
aI2278348
aI541646
aI1786831
aI1000401
aI869332
aI574421
aI2242041
aI1754072
aI1754073
aI1065947
aI213980
aI1754081
aI783867
aI625489
aI1786856
aI1357308
aI1065964
aI2296658
aI1229806
aI1983473
aI214002
aI2348691
aI1786874
aI476155
aI1885185
aI1164291
aI2066048
aI1968982
aI1655816
aI1688587
aI508941
aI345104
aI476177
aI1426452
aI1328149
aI1950742
aI1229847
aI2180122
aI702177
aI1557534
aI833029
aI1279385
aI1197090
aI246819
aI807547
aI2049061
aI17447
aI2343976
aI1164329
aI1459247
aI1950768
aI1881608
aI1655858
aI869427
aI1328180
aI672821
aI17463
aI1564852
aI214075
aI2081855
aI83010
aI1721411
aI1754181
aI1360966
aI1229895
aI1721416
aI2016330
aI998966
aI1885260
aI2311246
aI410703
aI1197137
aI1655890
aI1950805
aI771161
aI672858
aI2034449
aI509024
aI1351867
aI1242289
aI83051
aI1393774
aI1328239
aI83057
aI1950836
aI1066101
aI17526
aI1197176
aI254144
aI1330027
aI1885318
aI221377
aI1524874
aI1229965
aI1098894
aI1248109
aI246930
aI1688724
aI2247534
aI1754264
aI1188036
aI607386
aI1262748
aI509085
aI2081951
aI1688741
aI1918118
aI640167
aI1983658
aI1295532
aI2114734
aI2114735
aI1716933
aI1197235
aI771254
aI2147511
aI1361080
aI1511977
aI115903
aI443585
aI243908
aI1819847
aI1033420
aI306068
aI2346516
aI902352
aI148690
aI1623251
aI2147541
aI2016471
aI1787096
aI214233
aI476378
aI2171087
aI672988
aI672990
aI2082015
aI1705106
aI2311393
aI214243
aI836836
aI652838
aI1590503
aI2345852
aI1098986
aI1230061
aI115950
aI2245871
aI410864
aI2018087
aI279795
aI2180340
aI378101
aI1393910
aI1721592
aI1033470
aI1106133
aI1656064
aI2344194
aI1963563
aI1282666
aI1295622
aI181513
aI2016523
aI50445
aI1983758
aI1099023
aI2082065
aI1525012
aI640281
aI181530
aI836891
aI1852700
aI509213
aI1426719
aI935201
aI476453
aI50472
aI410921
aI1197355
aI2245932
aI1787184
aI1882789
aI2111027
aI1754422
aI1262903
aI1406516
aI869691
aI410941
aI505397
aI1361217
aI640325
aI1426758
aI1164615
aI574793
aI542030
aI17745
aI476498
aI2082131
aI443733
aI1230166
aI705881
aI542043
aI1787228
aI443741
aI1557854
aI1852770
aI1854353
aI935274
aI673132
aI2147697
aI607604
aI2324030
aI214392
aI52116
aI1131901
aI630909
aI2213247
aI1688960
aI705921
aI1787266
aI673155
aI345476
aI1858787
aI1820040
aI2180489
aI476556
aI1525135
aI902544
aI968082
aI1033619
aI574870
aI1033623
aI705945
aI247194
aI116123
aI542108
aI83358
aI2016671
aI411041
aI1328546
aI509347
aI2147748
aI411045
aI314839
aI1630449
aI378280
aI479558
aI279978
aI2291271
aI1579459
aI361709
aI443826
aI116149
aI1564916
aI150039
aI1521226
aI1295806
aI2105589
aI280000
aI2115012
aI1230278
aI882252
aI1977509
aI1361356
aI572347
aI116174
aI902608
aI83412
aI280021
aI1344418
aI902617
aI1590746
aI280027
aI1525212
aI1373237
aI181727
aI2111056
aI2165859
aI2100134
aI148968
aI148970
aI83435
aI1459693
aI2198440
aI738803
aI861888
aI935418
aI24831
aI2147837
aI312832
aI2082305
aI1197574
aI2016775
aI193727
aI1361422
aI2344464
aI1754641
aI1426965
aI968214
aI1259097
aI1492504
aI345625
aI1230363
aI312860
aI1492518
aI542248
aI1754667
aI181805
aI669277
aI1721904
aI1197624
aI2016825
aI935483
aI1492547
aI1918535
aI1040446
aI312908
aI2115151
aI1918544
aI411217
aI362809
aI1164887
aI1459800
aI620132
aI516367
aI640604
aI1772474
aI247390
aI509535
aI936958
aI1885793
aI1558114
aI2152469
aI1197668
aI46694
aI214631
aI1361512
aI673385
aI1062503
aI1754732
aI1499813
aI2122003
aI1033848
aI1558137
aI1459834
aI1853052
aI1623677
aI1394302
aI149119
aI2049664
aI149121
aI673410
aI2245169
aI1592257
aI673416
aI345738
aI968331
aI575116
aI1523537
aI837262
aI1963629
aI902801
aI1510339
aI1853077
aI411287
aI1328792
aI1722009
aI1459868
aI2344607
aI870048
aI247457
aI286478
aI2115235
aI149157
aI50854
aI2016935
aI1722024
aI18091
aI39883
aI1263279
aI2082485
aI630353
aI2180792
aI1296059
aI1164988
aI2049726
aI1947179
aI2180803
aI116423
aI771787
aI116430
aI768759
aI1099474
aI1951444
aI1328853
aI902870
aI767609
aI2148059
aI2344668
aI345822
aI771810
aI2016995
aI411366
aI1149905
aI804584
aI765327
aI640748
aI1754862
aI358013
aI313072
aI237864
aI1165044
aI1394422
aI1263351
aI2001876
aI1984250
aI423467
aI1492733
aI1510729
aI1296127
aI771844
aI83717
aI116487
aI1328904
aI1394441
aI1037179
aI2049804
aI280334
aI182032
aI18196
aI1728814
aI2049814
aI1492759
aI1263385
aI1459994
aI24879
aI1787680
aI247585
aI1330139
aI1754918
aI2180903
aI83753
aI1197866
aI1165100
aI1623853
aI247598
aI1558320
aI1066801
aI1034034
aI1533149
aI1165110
aI2311991
aI2017080
aI1656633
aI590637
aI658399
aI83772
aI1226378
aI108629
aI208479
aI1034051
aI2082628
aI1597750
aI771910
aI35809
aI1460040
aI771913
aI509774
aI2225805
aI144637
aI1328981
aI968534
aI1787735
aI182104
aI1066841
aI1460059
aI1722205
aI182111
aI214880
aI1787745
aI1525603
aI968548
aI378725
aI1329001
aI575340
aI542576
aI2169288
aI626208
aI1591160
aI345979
aI1558397
aI528007
aI1787777
aI575362
aI84971
aI51076
aI1361802
aI1499458
aI281581
aI1853332
aI378773
aI226969
aI1422728
aI2149359
aI2148253
aI1558430
aI1722271
aI1117168
aI1853346
aI1001379
aI2213796
aI1330161
aI1321939
aI1302329
aI1125566
aI1525680
aI1427377
aI83893
aI1820599
aI1543156
aI1980063
aI1272869
aI1900269
aI870340
aI1907907
aI870343
aI313289
aI935885
aI116686
aI706511
aI247761
aI2148313
aI1301147
aI903134
aI477151
aI2017249
aI739303
aI1492973
aI706543
aI1296368
aI2324136
aI935925
aI1492985
aI680277
aI1001473
aI1460226
aI1624067
aI2344967
aI1646038
aI149514
aI1525772
aI1755152
aI739345
aI358062
aI2050070
aI827737
aI1853464
aI1241166
aI1591322
aI1951771
aI1427484
aI1279419
aI1707013
aI346144
aI784048
aI86814
aI2017315
aI1132580
aI1525800
aI1132585
aI673834
aI182315
aI1853487
aI1198129
aI706611
aI706613
aI1674249
aI2312250
aI230844
aI1689661
aI1624127
aI1433952
aI2198539
aI1984586
aI1001547
aI2051085
aI1493074
aI1684817
aI247895
aI706648
aI1230937
aI2017372
aI385381
aI1132640
aI1078971
aI608357
aI1460326
aI1591399
aI2297446
aI2214003
aI2115700
aI542837
aI1919098
aI608379
aI1624188
aI2214014
aI84095
aI1165440
aI764409
aI1689735
aI1525900
aI870542
aI691224
aI1329298
aI1722515
aI280725
aI1624214
aI1339007
aI1591450
aI477339
aI1919134
aI1329312
aI1483178
aI477349
aI2180697
aI346281
aI444586
aI1886379
aI2312364
aI2230487
aI379054
aI215215
aI1919154
aI1941875
aI1525943
aI1919160
aI1263801
aI2345146
aI1853627
aI521930
aI2083006
aI1329346
aI177867
aI1165514
aI827767
aI1329356
aI477390
aI1165520
aI313553
aI379091
aI45357
aI1034454
aI1143034
aI2181339
aI968924
aI1984733
aI215265
aI575714
aI527398
aI51431
aI1362152
aI492721
aI1853675
aI1591533
aI84208
aI2078419
aI215284
aI2312437
aI1788150
aI379128
aI2246905
aI182522
aI1171839
aI2148604
aI1394943
aI1263872
aI772355
aI516481
aI1984776
aI641291
aI1397269
aI706829
aI1145218
aI2345231
aI1526034
aI1624341
aI538329
aI968984
aI706841
aI1886490
aI1427742
aI377063
aI2160347
aI2056582
aI608550
aI1493287
aI2017576
aI1439452
aI903466
aI647559
aI2050349
aI1165614
aI1919279
aI1614216
aI1263922
aI1329459
aI1417609
aI84281
aI1984827
aI1313845
aI1493313
aI2050370
aI467339
aI346436
aI2083142
aI543047
aI401804
aI1952076
aI243426
aI2138509
aI2050384
aI1329490
aI718563
aI51540
aI1450382
aI1526102
aI1231191
aI510296
aI1263961
aI1034586
aI1821021
aI477534
aI1034593
aI837987
aI837989
aI346470
aI2312552
aI1100137
aI837995
aI2001981
aI1100144
aI969073
aI1493362
aI2345331
aI346486
aI1919352
aI2279802
aI642111
aI280956
aI1526142
aI2247041
aI1100163
aI1526148
aI739717
aI1969217
aI1526154
aI1581463
aI576578
aI706960
aI1296785
aI1657234
aI2247060
aI521966
aI379288
aI2279833
aI1362330
aI444829
aI51614
aI575903
aI936353
aI2202528
aI674212
aI2051142
aI1132966
aI1701617
aI1454013
aI84395
aI1624492
aI1722797
aI1984942
aI805296
aI51633
aI117175
aI1614239
aI887882
aI248255
aI313792
aI2181569
aI739781
aI1984969
aI1165770
aI1919437
aI51665
aI1821138
aI281043
aI2148820
aI1139769
aI641494
aI674263
aI739801
aI1329628
aI772574
aI467365
aI1198560
aI2083300
aI2345445
aI838119
aI1362408
aI84457
aI1854546
aI2279918
aI903663
aI1526256
aI1362417
aI84467
aI1952244
aI2253225
aI412154
aI1821180
aI1559037
aI1460734
aI2033406
aI2083330
aI1985027
aI1034758
aI84487
aI2312713
aI510474
aI1477719
aI1985036
aI1264142
aI2083344
aI641554
aI1100308
aI2050582
aI182807
aI1755674
aI281115
aI1427998
aI1985059
aI248357
aI772646
aI1762807
aI444968
aI1670061
aI1460778
aI1395247
aI903728
aI2214450
aI412212
aI2345525
aI412216
aI767697
aI1493564
aI1652509
aI1198655
aI1886785
aI51778
aI1554187
aI2280004
aI1329733
aI805451
aI215628
aI1067603
aI445012
aI1133142
aI2073017
aI1133144
aI281177
aI1165915
aI1466810
aI740453
aI182880
aI969313
aI1722978
aI281187
aI1952356
aI1198693
aI707176
aI1559145
aI379501
aI379504
aI248433
aI1395314
aI198129
aI1237438
aI2247287
aI1559160
aI620308
aI838267
aI1886845
aI1657472
aI281217
aI2312837
aI1198728
aI1067662
aI1952399
aI1417667
aI281236
aI1198741
aI1430016
aI576152
aI2083483
aI1755806
aI314015
aI1493664
aI772770
aI1493667
aI811462
aI2017958
aI1324177
aI975303
aI35954
aI2312878
aI1100463
aI2312880
aI1985201
aI281266
aI182965
aI2211397
aI1329847
aI641720
aI1657530
aI412347
aI1737716
aI215745
aI805571
aI1755844
aI686958
aI2181830
aI51912
aI1985225
aI248522
aI1362635
aI576205
aI1723086
aI838351
aI969424
aI510675
aI412372
aI1353639
aI936662
aI2214615
aI2116314
aI412379
aI2182266
aI90576
aI2247395
aI2018020
aI674534
aI1198824
aI314089
aI51946
aI554791
aI1985260
aI1198831
aI838386
aI707315
aI1363070
aI1493751
aI521326
aI609017
aI903931
aI1690364
aI2149117
aI1952510
aI543487
aI51968
aI576263
aI1321998
aI1231627
aI2247439
aI1297170
aI183427
aI510740
aI445207
aI1210159
aI1919772
aI707358
aI1493792
aI969510
aI1952551
aI412456
aI2313001
aI1444999
aI248621
aI510767
aI314164
aI871223
aI2313018
aI1368543
aI412483
aI2018116
aI1166150
aI1362759
aI683689
aI183114
aI117581
aI1100623
aI1067856
aI2275128
aI1231700
aI1695167
aI1166166
aI1335881
aI1657688
aI707418
aI1297244
aI510813
aI1854303
aI232592
aI2094907
aI609125
aI281446
aI117607
aI1384935
aI412524
aI412525
aI117614
aI1493871
aI904048
aI1395569
aI871283
aI1024489
aI805755
aI2214780
aI2345853
aI117630
aI1133439
aI1668928
aI1330051
aI2149253
aI1756040
aI1696236
aI2182027
aI1624972
aI2083726
aI1200887
aI117648
aI2214801
aI740242
aI800579
aI2214804
aI713198
aI1067927
aI2182040
aI1330073
aI877039
aI1133470
aI871327
aI1297313
aI1985442
aI1559459
aI1690534
aI1319409
aI445352
aI904105
aI1788842
aI445356
aI1139186
aI658589
aI2018224
aI2324296
aI2345906
aI123379
aI117687
aI1133498
aI1855038
aI1788862
aI871361
aI281543
aI2280394
aI243013
aI576467
aI838548
aI576472
aI1657818
aI969691
aI851728
aI1657828
aI314341
aI724135
aI1199085
aI445423
aI1231856
aI871592
aI1264627
aI1199094
aI855209
aI871419
aI1592317
aI2018302
aI543743
aI1278361
aI2149379
aI150534
aI1756168
aI85002
aI576523
aI805900
aI904205
aI1461263
aI1690641
aI412692
aI1576110
aI642070
aI2258777
aI1461272
aI1920025
aI1035290
aI2346013
aI1821727
aI2051104
aI838689
aI1690658
aI281636
aI871462
aI314411
aI609324
aI2291549
aI1827201
aI1756210
aI1428531
aI2051817
aI576567
aI1838260
aI216123
aI2214972
aI1723453
aI1657918
aI1559615
aI2247746
aI543811
aI674885
aI2182214
aI1723465
aI2182220
aI2307938
aI1133646
aI2018383
aI1920080
aI871608
aI1395794
aI871508
aI1297493
aI314455
aI1657952
aI1330276
aI1428581
aI1359108
aI1920103
aI707688
aI1226599
aI1526894
aI478321
aI1821813
aI1297526
aI773239
aI740473
aI1559674
aI249023
aI1455978
aI1330302
aI1565205
aI707712
aI101568
aI871555
aI1821829
aI773254
aI1002632
aI2129447
aI1428618
aI904386
aI915309
aI1909039
aI1854611
aI1100949
aI2215062
aI642199
aI248984
aI543897
aI609434
aI904347
aI937157
aI1920161
aI2149539
aI1723559
aI1199272
aI1920169
aI855239
aI2122270
aI445622
aI1166519
aI85176
aI445625
aI1199292
aI2149565
aI609470
aI1100991
aI2247874
aI1461445
aI609482
aI2313421
aI806094
aI1625293
aI2280656
aI2310577
aI1658066
aI642260
aI1133782
aI1062777
aI85209
aI2018525
aI1428704
aI1204076
aI2103263
aI1821927
aI2182379
aI969964
aI1133778
aI806127
aI57896
aI554878
aI2182392
aI249044
aI675066
aI1406847
aI675068
aI2105898
aI1048141
aI1985791
aI969986
aI1471078
aI1887493
aI1101062
aI904455
aI1887496
aI1002761
aI1297674
aI1756427
aI1264908
aI1330445
aI1494287
aI1461522
aI511252
aI937237
aI2299668
aI871703
aI576792
aI1428764
aI1166624
aI1920289
aI1756450
aI281892
aI1712689
aI707880
aI150825
aI1690922
aI1262004
aI675117
aI642351
aI314674
aI1188403
aI19764
aI1887541
aI1527098
aI1084639
aI1166652
aI1911227
aI478531
aI625876
aI478537
aI544077
aI19792
aI544083
aI1953110
aI806243
aI1854820
aI1199462
aI662007
aI621199
aI2018668
aI314733
aI2293737
aI1658224
aI249201
aI1625461
aI1416947
aI1691000
aI959039
aI2137093
aI2248061
aI707967
aI614976
aI2280835
aI609669
aI183686
aI1756551
aI1461640
aI1002890
aI1035662
aI445840
aI904599
aI291993
aI1461659
aI937372
aI2307994
aI2051488
aI1756577
aI685979
aI1920422
aI1887655
aI2084264
aI937385
aI1461674
aI2248107
aI1691054
aI702365
aI347571
aI1428916
aI1330613
aI1625526
aI347575
aI609721
aI1428927
aI1396164
aI183750
aI1756617
aI314831
aI1953233
aI2322588
aI1177507
aI216535
aI970200
aI19931
aI2346461
aI2215390
aI1592800
aI1434192
aI314850
aI1150203
aI216549
aI937446
aI1978726
aI52714
aI1914791
aI2280941
aI773615
aI1835838
aI1163488
aI2018559
aI445948
aI314879
aI1151807
aI675330
aI85508
aI511493
aI2215430
aI1625610
aI871947
aI1854992
aI1560081
aI85522
aI773652
aI871961
aI511516
aI2051613
aI773663
aI1291916
aI1068294
aI708134
aI20007
aI380456
aI1325298
aI871981
aI1166894
aI811613
aI1265200
aI970289
aI822537
aI2117180
aI625930
aI511550
aI118335
aI1494592
aI52803
aI1920586
aI1560140
aI1768298
aI937229
aI1134160
aI2149969
aI478804
aI2284403
aI314972
aI1226682
aI1548901
aI806497
aI2045883
aI2215526
aI773735
aI2117224
aI642665
aI20076
aI773394
aI642670
aI1901417
aI1303144
aI347762
aI1887859
aI2150004
aI1789557
aI838932
aI249467
aI1560188
aI1068670
aI1756800
aI118401
aI2117252
aI118406
aI644436
aI1822346
aI216715
aI577164
aI1003150
aI1447508
aI2215569
aI1832899
aI1581678
aI1512976
aI380567
aI216731
aI1625756
aI118430
aI1887907
aI2347691
aI1565297
aI871708
aI2117290
aI2078663
aI2018989
aI1232559
aI1527472
aI937650
aI1330870
aI2176969
aI1035963
aI1303157
aI904896
aI347841
aI806594
aI1134275
aI20165
aI839369
aI324156
aI2215628
aI1494735
aI1658577
aI937682
aI1724115
aI1789654
aI1724119
aI1101528
aI101668
aI1521615
aI347871
aI1527520
aI839399
aI249577
aI2313965
aI52974
aI478504
aI1953522
aI1963987
aI1284933
aI1062868
aI815858
aI2346747
aI511741
aI2182912
aI2254948
aI1166635
aI511750
aI1953543
aI904971
aI422941
aI1521624
aI315154
aI85779
aI1789720
aI1461551
aI1003298
aI2013147
aI315176
aI2078684
aI610091
aI708396
aI1920306
aI937775
aI315185
aI347954
aI1789748
aI2281275
aI53053
aI184128
aI30688
aI741188
aI1036102
aI347976
aI905033
aI610122
aI872267
aI1188493
aI507289
aI1625937
aI1625940
aI1986391
aI810403
aI872282
aI872288
aI1625953
aI1215803
aI118631
aI1068904
aI1363817
aI1957073
aI379299
aI1757038
aI85871
aI1144808
aI1298290
aI1625971
aI2346868
aI1036152
aI1714923
aI1101693
aI511871
aI53121
aI1658757
aI920897
aI1691528
aI1100537
aI1232781
aI695399
aI2084755
aI1970168
aI1003414
aI2051992
aI446361
aI872347
aI216988
aI151454
aI1312217
aI1920931
aI2215844
aI315305
aI1527725
aI2117552
aI2052018
aI1458429
aI249780
aI1560501
aI348086
aI511927
aI839609
aI1783586
aI2150332
aI20414
aI1036228
aI260086
aI20425
aI604151
aI1232844
aI85967
aI2104379
aI413652
aI2215895
aI1822681
aI610267
aI2117597
aI2019295
aI249825
aI2281443
aI184292
aI1560551
aI380904
aI905194
aI118765
aI479214
aI1053288
aI1658869
aI970742
aI2150391
aI1560568
aI2308095
aI1921020
aI806912
aI675843
aI2150405
aI2019334
aI1200135
aI1855496
aI512009
aI2314252
aI937998
aI872463
aI1331216
aI1560595
aI1665168
aI708629
aI1331223
aI2019355
aI1363996
aI2019361
aI544803
aI675876
aI380965
aI74418
aI20527
aI1036338
aI516788
aI1790007
aI2024116
aI643133
aI2117694
aI2019392
aI997387
aI1182378
aI381000
aI1553568
aI2204767
aI1101902
aI1593424
aI413777
aI970835
aI1822807
aI643160
aI539703
aI512093
aI20574
aI680757
aI2333176
aI178192
aI1921122
aI708707
aI445798
aI544870
aI1331304
aI544873
aI1298539
aI2019442
aI1396852
aI1790071
aI1626232
aI2052219
aI151678
aI1069185
aI1724546
aI1878521
aI2084997
aI1724550
aI446601
aI1593482
aI2314381
aI1560720
aI784118
aI2183315
aI1134740
aI446613
aI2248854
aI2117785
aI1495197
aI1822064
aI1888418
aI2138211
aI1462436
aI426228
aI161820
aI1380967
aI2347183
aI839857
aI708786
aI430593
aI926409
aI2002292
aI577722
aI1986747
aI358579
aI1659078
aI1855691
aI1429708
aI1472546
aI1560782
aI800487
aI2120626
aI53460
aI184533
aI872662
aI1519542
aI2216152
aI1921242
aI1030181
aI2106064
aI512227
aI184551
aI119016
aI348394
aI217324
aI1233134
aI904573
aI1331440
aI348402
aI516819
aI1963633
aI1462521
aI1921277
aI807167
aI1898539
aI512260
aI1790214
aI1396999
aI774409
aI1287133
aI1888526
aI1199491
aI2248981
aI1418069
aI774423
aI708893
aI1659166
aI86304
aI2160688
aI647899
aI839972
aI741669
aI1069350
aI1745628
aI1724714
aI1626414
aI1593650
aI1570867
aI1921335
aI1407028
aI1823036
aI2117950
aI1308725
aI1626432
aI610627
aI2052420
aI1528134
aI1983276
aI1790280
aI545099
aI1003852
aI205538
aI446798
aI1102160
aI774483
aI1921364
aI36238
aI1397080
aI1102170
aI1003867
aI1254117
aI840032
aI1559952
aI1692006
aI151911
aI1429864
aI2216298
aI2117995
aI631528
aI1167730
aI1954163
aI1429877
aI348535
aI315768
aI86394
aI1003099
aI1626495
aI1692033
aI1270507
aI1134982
aI2085255
aI676234
aI1846887
aI872846
aI2117016
aI325699
aI1954196
aI1869669
aI479638
aI545178
aI1364380
aI1167773
aI905632
aI1757602
aI1855914
aI971181
aI1331630
aI145480
aI1495474
aI2138867
aI86452
aI774585
aI1372247
aI1823163
aI1921468
aI2150846
aI1364416
aI2183617
aI2183618
aI1528259
aI1135045
aI1364424
aI2150857
aI1429962
aI1434359
aI938444
aI1954257
aI774611
aI2019802
aI2150875
aI938463
aI1364449
aI20962
aI971236
aI1268679
aI1921510
aI1528298
aI1035687
aI2340946
aI991997
aI53744
aI708008
aI512498
aI1036787
aI1692148
aI19881
aI2019832
aI1495545
aI2314746
aI1626621
aI1593855
aI2150912
aI709126
aI2150920
aI1004041
aI1341698
aI1069579
aI2281996
aI774671
aI1856016
aI1856017
aI1528338
aI1561108
aI1248686
aI1954327
aI414232
aI1856025
aI1626650
aI1036831
aI1528352
aI1561121
aI610850
aI1200675
aI447012
aI1090739
aI1462823
aI1921577
aI1626668
aI315951
aI2216496
aI167347
aI840245
aI53814
aI53815
aI1692219
aI1528380
aI320266
aI2052670
aI1938548
aI578114
aI533259
aI479812
aI283206
aI1397320
aI1397321
aI1823306
aI610891
aI2282061
aI1069646
aI1331791
aI2019920
aI1397348
aI2019925
aI578134
aI643673
aI1226853
aI1626721
aI774755
aI348772
aI2054209
aI1364583
aI184937
aI1004143
aI1528432
aI676465
aI1462898
aI2335507
aI86646
aI86648
aI774777
aI36287
aI2347644
aI1754149
aI893717
aI807554
aI676483
aI1528453
aI2330049
aI2314888
aI938642
aI1528469
aI2019991
aI1790623
aI1757856
aI1364644
aI1135271
aI971434
aI1954475
aI1462956
aI1102510
aI1041181
aI2085552
aI1980531
aI2020021
aI53942
aI2314935
aI2169948
aI250556
aI1790653
aI1036991
aI1835628
aI283335
aI545482
aI1849999
aI1954510
aI1069776
aI1757910
aI1401717
aI2118360
aI971482
aI554349
aI1430239
aI1659616
aI217825
aI1823458
aI1168102
aI21225
aI1889005
aI807662
aI981117
aI186199
aI1430259
aI2085621
aI1561335
aI479995
aI971517
aI316158
aI1233664
aI348932
aI545542
aI1594120
aI643849
aI185099
aI447244
aI2282254
aI975087
aI1594128
aI469979
aI1276239
aI2118425
aI493899
aI2249500
aI1561374
aI1626912
aI658907
aI2183972
aI1528614
aI1528615
aI545576
aI1266475
aI1790765
aI217903
aI1594160
aI1844019
aI414517
aI1954614
aI1844719
aI447288
aI1147487
aI906043
aI1561406
aI447295
aI643904
aI1745718
aI709446
aI447303
aI54088
aI1200969
aI611147
aI54092
aI1392633
aI2052945
aI1233746
aI250707
aI807765
aI1135447
aI643930
aI1322583
aI1528671
aI1463136
aI1266534
aI2118503
aI1430376
aI2184041
aI1954666
aI1725291
aI1299309
aI1594224
aI283507
aI90942
aI822761
aI86905
aI1168250
aI1205055
aI1078748
aI512893
aI2209941
aI1180519
aI775041
aI1560043
aI1758084
aI2249605
aI1004422
aI664385
aI232940
aI152458
aI2249611
aI1201037
aI2020241
aI500547
aI134638
aI54166
aI86935
aI185240
aI1161856
aI2149871
aI1069984
aI1528739
aI381861
aI1463207
aI1069992
aI1882268
aI2053035
aI2347948
aI495090
aI1495982
aI1816733
aI775090
aI9033
aI1659832
aI931999
aI2053052
aI119741
aI1594302
aI1627072
aI96416
aI1692610
aI1561539
aI1659845
aI1070022
aI414665
aI1823692
aI152525
aI1303373
aI1397713
aI807892
aI1221689
aI1889239
aI218072
aI1570980
aI709594
aI1364955
aI1299421
aI873439
aI2184160
aI1680208
aI1855636
aI1233892
aI1528805
aI2118634
aI610009
aI709614
aI709615
aI2151410
aI21492
aI1478142
aI2085885
aI1463294
aI1659903
aI1004546
aI1838179
aI349189
aI1299462
aI414729
aI1004557
aI939022
aI218127
aI156748
aI1135633
aI1401689
aI1004569
aI1528859
aI873500
aI807965
aI1168414
aI2151455
aI2020385
aI1889315
aI620479
aI447527
aI1856553
aI679040
aI1922092
aI1922093
aI939055
aI2151472
aI414769
aI152627
aI1889332
aI382005
aI1201207
aI1856568
aI316474
aI2132786
aI676924
aI1758269
aI283711
aI1168450
aI2149899
aI775241
aI2282571
aI316492
aI1823821
aI1365071
aI971857
aI2315352
aI2085978
aI161978
aI1725534
aI152671
aI1627232
aI218210
aI1145019
aI712136
aI775269
aI2182673
aI2249833
aI2118770
aI2348147
aI1001286
aI2053241
aI1168506
aI1865919
aI1791101
aI1725567
aI611457
aI1004674
aI1168515
aI1758340
aI69142
aI775302
aI2151562
aI1944497
aI287597
aI2348176
aI2282641
aI251026
aI1430675
aI1987734
aI1397913
aI1660058
aI1103003
aI1660062
aI1299615
aI1266849
aI1070243
aI1365157
aI675356
aI2020522
aI1496235
aI971951
aI1587400
aI1823924
aI2297374
aI587977
aI1397944
aI1791161
aI185530
aI1135803
aI185532
aI1057653
aI513217
aI1004739
aI1103044
aI1496266
aI2151628
aI1800397
aI677072
aI152785
aI611540
aI1660117
aI2086103
aI185561
aI1237882
aI1594591
aI2020576
aI677136
aI2053349
aI1004774
aI1070311
aI480493
aI303997
aI120048
aI316657
aI1463538
aI1155966
aI1398006
aI251131
aI2086142
aI349441
aI382211
aI677125
aI2151688
aI1266953
aI709898
aI1201420
aI516994
aI414991
aI2217232
aI1987858
aI1762179
aI1135893
aI972054
aI840983
aI840984
aI1168665
aI1674799
aI578845
aI316702
aI844677
aI447780
aI218405
aI1398056
aI775471
aI185648
aI1502121
aI36403
aI544179
aI382265
aI939322
aI1603807
aI156554
aI316735
aI1922369
aI709955
aI784609
aI2151755
aI1987916
aI1070413
aI283983
aI1660240
aI2151763
aI2315604
aI189326
aI1877471
aI691769
aI185692
aI283997
aI1103199
aI598299
aI1660258
aI2184548
aI480613
aI1135975
aI937532
aI54635
aI185709
aI2055326
aI1987953
aI21875
aI52798
aI1922422
aI1824126
aI1496447
aI120193
aI480643
aI251269
aI152967
aI395718
aI1758604
aI87438
aI1980653
aI1398160
aI2270104
aI1216067
aI1562004
aI2184598
aI349591
aI1299864
aI101956
aI424088
aI1724137
aI218527
aI1004960
aI1955234
aI2040731
aI1845453
aI906664
aI415147
aI905277
aI1824178
aI811934
aI1136055
aI513467
aI1887818
aI1725886
aI1882357
aI316867
aI710087
aI87496
aI677321
aI87498
aI546251
aI876029
aI972242
aI185812
aI316885
aI1341689
aI677337
aI2282971
aI1005020
aI677342
aI87520
aI1496545
aI1693159
aI1824232
aI1456380
aI1037803
aI2119148
aI1070573
aI1541408
aI972273
aI546296
aI710137
aI107434
aI873982
aI1103359
aI1955331
aI2315780
aI382470
aI1955335
aI1496584
aI1463819
aI833794
aI415247
aI1463824
aI2100824
aI948483
aI1407477
aI2199129
aI972312
aI710171
aI2217500
aI2035290
aI2013869
aI415267
aI1922596
aI644646
aI2237361
aI579112
aI1723996
aI808490
aI1221709
aI382512
aI611889
aI251442
aI1037879
aI2086456
aI2086457
aI251451
aI284220
aI742973
aI1804373
aI939584
aI1474049
aI906820
aI1693254
aI742984
aI1627722
aI910263
aI793987
aI1037903
aI808530
aI480851
aI153172
aI1819049
aI1201752
aI2013455
aI579167
aI2283104
aI320443
aI54885
aI775790
aI615357
aI1758834
aI513651
aI743028
aI1857143
aI207299
aI1496703
aI2086528
aI1432300
aI1693318
aI1851877
aI2000779
aI415373
aI2021006
aI54928
aI1702168
aI1300114
aI1136275
aI448148
aI874133
aI939670
aI1562265
aI54939
aI506138
aI2053793
aI251555
aI1463975
aI1103532
aI448174
aI677552
aI2315955
aI1103540
aI2053817
aI1669407
aI939708
aI1857214
aI1857218
aI238539
aI1857221
aI2021062
aI2053834
aI1300173
aI438561
aI254925
aI54992
aI349906
aI982757
aI637220
aI1955548
aI1627869
aI1366563
aI644834
aI218851
aI710372
aI1169125
aI2316006
aI2250471
aI1070824
aI808681
aI2341159
aI22252
aI2021106
aI1955571
aI218868
aI1461886
aI775926
aI123860
aI1300220
aI768897
aI1169155
aI215068
aI1103621
aI2021127
aI907016
aI349961
aI22283
aI677645
aI2086673
aI841490
aI1642115
aI1857300
aI1234710
aI334628
aI317208
aI382745
aI55067
aI1482497
aI2152223
aI841507
aI382757
aI251690
aI2068103
aI1726253
aI284463
aI55088
aI1464114
aI1464115
aI1005364
aI1221598
aI199824
aI1562426
aI1464123
aI249483
aI841543
aI677704
aI118412
aI87885
aI101128
aI1496912
aI1365841
aI808786
aI2179731
aI841557
aI1562454
aI653625
aI1500132
aI1464154
aI1365854
aI1431391
aI2217828
aI1988453
aI776040
aI2152297
aI1922922
aI2030247
aI1920043
aI1019539
aI2250612
aI841590
aI1991657
aI1136504
aI317305
aI939898
aI874363
aI1759105
aI1726340
aI546693
aI120711
aI1890185
aI1562506
aI872087
aI939916
aI1398670
aI1626530
aI1642136
aI2348946
aI87957
aI251800
aI677785
aI2086810
aI1824671
aI1234177
aI120743
aI2316202
aI1709939
aI481201
aI1005490
aI2152372
aI808885
aI2079049
aI2316216
aI800546
aI598687
aI262619
aI1136577
aI2119618
aI317380
aI2335734
aI1202118
aI2283465
aI1955788
aI1890253
aI186322
aI710611
aI55252
aI1464278
aI2344496
aI153560
aI2033524
aI1628123
aI1955804
aI153565
aI1038302
aI691877
aI1958907
aI1431524
aI2152426
aI1136621
aI350191
aI382960
aI1620307
aI1038325
aI186361
aI2141547
aI954026
aI1071103
aI1123328
aI2152452
aI1005577
aI1654947
aI1857547
aI1826211
aI1529870
aI1333264
aI1890322
aI415763
aI1431572
aI22549
aI841751
aI238597
aI677921
aI2349090
aI790193
aI1071145
aI972844
aI511666
aI1529904
aI1556528
aI612406
aI1728489
aI2021434
aI2253834
aI1333310
aI654339
aI1128800
aI55362
aI481347
aI874564
aI1167030
aI2152519
aI1726536
aI305883
aI574687
aI55375
aI1431632
aI1161571
aI710741
aI1366102
aI579671
aI991499
aI1431643
aI186460
aI2349149
aI650678
aI1172453
aI1497187
aI1005668
aI1079654
aI645222
aI1497191
aI1693800
aI247399
aI612461
aI1366131
aI645236
aI1235062
aI55418
aI1235067
aI2316416
aI1202305
aI546946
aI2185347
aI88197
aI1497222
aI907399
aI546952
aI1046892
aI940170
aI1008663
aI2021517
aI415887
aI1467416
aI415890
aI1628307
aI546966
aI481432
aI1661083
aI812058
aI383134
aI806597
aI98957
aI473456
aI284834
aI1398947
aI546986
aI1759406
aI940999
aI1300656
aI1792177
aI637299
aI809143
aI1342218
aI2218169
aI415934
aI2283713
aI1169602
aI2111862
aI1497289
aI2218186
aI1431756
aI1988814
aI317647
aI2283728
aI1161592
aI415954
aI1923283
aI1267928
aI58404
aI1625807
aI768378
aI1005790
aI757456
aI1136870
aI907495
aI809194
aI907499
aI612588
aI2250989
aI2349295
aI328097
aI1300722
aI216787
aI448757
aI1464567
aI55546
aI776446
aI350467
aI2119941
aI1325866
aI1259905
aI2283784
aI678156
aI817538
aI1562894
aI2218256
aI1726738
aI284947
aI907541
aI2185494
aI659161
aI1562904
aI1956121
aI219418
aI353327
aI317725
aI383265
aI1505428
aI1497382
aI645415
aI1825065
aI2349354
aI2283820
aI2283821
aI1139763
aI514356
aI2251064
aI2127373
aI1825085
aI1038655
aI1104192
aI1890625
aI1579626
aI514374
aI383305
aI1104202
aI481611
aI973134
aI2292109
aI186704
aI88401
aI1890642
aI1735054
aI1025081
aI1268056
aI307369
aI842076
aI1628510
aI973151
aI1890656
aI1562979
aI186724
aI153957
aI2040892
aI1137002
aI2114281
aI654349
aI645488
aI1199349
aI1300854
aI2320505
aI2236488
aI2120060
aI1447219
aI86962
aI1366400
aI1431940
aI1759622
aI1221697
aI2120073
aI55690
aI645516
aI2215661
aI1792400
aI2251158
aI1661335
aI743834
aI1726877
aI1694111
aI1333664
aI612769
aI2349475
aI2021796
aI2139206
aI446193
aI1464744
aI1431978
aI1199858
aI2046365
aI2319416
aI1603999
aI1137087
aI2316736
aI2185667
aI219592
aI386124
aI514506
aI2218443
aI1101096
aI809426
aI2218452
aI1792470
aI1333719
aI1333720
aI711129
aI383450
aI88539
aI1300956
aI154077
aI1268193
aI1956324
aI88551
aI2087401
aI1057874
aI580078
aI1494781
aI907760
aI2218482
aI2087414
aI440745
aI1989112
aI612858
aI200447
aI154108
aI1497598
aI910421
aI1366530
aI1071619
aI317960
aI520716
aI2236493
aI580111
aI2021904
aI1792529
aI121364
aI1292718
aI317974
aI1202711
aI285208
aI973338
aI653743
aI1890844
aI1470769
aI1759775
aI842274
aI1333795
aI1301029
aI1432103
aI350760
aI1336412
aI1084948
aI711211
aI1301036
aI1563181
aI875055
aI1727024
aI318001
aI145843
aI1989174
aI3849
aI186938
aI1104443
aI2349631
aI252484
aI1560896
aI1851326
aI350792
aI1953548
aI580171
aI1759820
aI266606
aI817592
aI1792594
aI790748
aI1497685
aI121431
aI1301082
aI1333851
aI271461
aI1432160
aI1609488
aI940642
aI342459
aI181899
aI1904401
aI1713217
aI1137258
aI547435
aI2051858
aI1759857
aI1104500
aI539070
aI645750
aI1516649
aI88698
aI1964479
aI481917
aI1792639
aI1333888
aI691017
aI1661572
aI2349701
aI114249
aI1858185
aI318091
aI318092
aI1353773
aI2022030
aI1563282
aI613015
aI613016
aI1530521
aI1989275
aI1890972
aI2232090
aI973470
aI940705
aI1661602
aI1235621
aI2120358
aI1104551
aI121512
aI1006249
aI1071787
aI678572
aI1366701
aI809649
aI187060
aI2153141
aI2185910
aI2185912
aI547513
aI2251452
aI645823
aI842432
aI2087618
aI1535328
aI1235656
aI547531
aI1399502
aI1268432
aI1235665
aI2133795
aI2054871
aI1039065
aI1727195
aI645852
aI1680506
aI154337
aI23267
aI1268452
aI482023
aI1891048
aI1598588
aI744171
aI121580
aI975997
aI23283
aI154362
aI1727227
aI2087677
aI416510
aI2013653
aI1399555
aI18449
aI1226359
aI2054918
aI1235720
aI1268489
aI1399562
aI345573
aI744205
aI908046
aI285457
aI1894978
aI1478446
aI842518
aI1751513
aI973594
aI809755
aI2022172
aI1399581
aI2284321
aI1268518
aI645927
aI351018
aI2019122
aI383795
aI1694516
aI965086
aI809783
aI187192
aI1071931
aI154428
aI219965
aI266037
aI1923905
aI1792834
aI285508
aI449350
aI680552
aI2164489
aI169716
aI1323228
aI940886
aI1104727
aI678745
aI1596250
aI1956700
aI1825631
aI711520
aI1497953
aI1520723
aI252771
aI1402001
aI1358311
aI916699
aI380733
aI580464
aI1432435
aI1071988
aI1629046
aI1440233
aI416636
aI1172629
aI1465216
aI220038
aI1629065
aI678794
aI2120587
aI809868
aI2193901
aI2153363
aI416661
aI285591
aI711577
aI482204
aI1137566
aI351138
aI1877147
aI244209
aI418972
aI2218927
aI842672
aI416690
aI23475
aI121897
aI678840
aI355399
aI547775
aI515008
aI876328
aI1432516
aI2155479
aI1563590
aI908231
aI121800
aI2284491
aI252876
aI1924045
aI777167
aI1849828
aI2177528
aI1841519
aI252885
aI1891290
aI1445711
aI908252
aI1268704
aI777185
aI1432546
aI89059
aI1989612
aI515053
aI187374
aI1399791
aI2087921
aI1956853
aI1989622
aI1724244
aI1137661
aI1465344
aI1498115
aI220165
aI2079233
aI842764
aI834050
aI1399822
aI1018809
aI1104914
aI1235990
aI2144772
aI1642330
aI2251806
aI528219
aI908324
aI2219045
aI1236006
aI1629223
aI1858600
aI482345
aI2251819
aI1367084
aI1975474
aI285742
aI1740637
aI1334320
aI2120754
aI1039411
aI1236022
aI2219063
aI1563704
aI1924153
aI1074458
aI515133
aI1527648
aI2108299
aI973893
aI580679
aI482376
aI2317385
aI2055242
aI1039435
aI1221816
aI227329
aI1072212
aI2243087
aI515164
aI1718800
aI1891426
aI318563
aI2153572
aI1917903
aI1006695
aI1573106
aI1530988
aI1773416
aI488523
aI1039476
aI298857
aI1367160
aI244244
aI187518
aI1793152
aI810113
aI515202
aI1629315
aI547972
aI908421
aI187528
aI1748779
aI121996
aI2088077
aI1987529
aI515216
aI1268881
aI285842
aI842899
aI84806
aI285846
aI2186394
aI1691503
aI285852
aI1465502
aI1975493
aI1196668
aI449698
aI1432740
aI1236133
aI2232177
aI1203370
aI287943
aI757618
aI1629358
aI220335
aI1006769
aI777395
aI2022580
aI1072312
aI285883
aI122047
aI746699
aI122055
aI1400008
aI580812
aI842960
aI184184
aI1096227
aI548055
aI220376
aI318681
aI2153695
aI1891552
aI154851
aI1105124
aI1006821
aI384235
aI2186477
aI1959123
aI1662196
aI1349429
aI2088184
aI1039609
aI1891578
aI875771
aI154877
aI1694975
aI1760513
aI1139509
aI1465604
aI384263
aI1826056
aI2274708
aI1826062
aI1137936
aI843025
aI122130
aI744724
aI1194542
aI1269014
aI89367
aI626564
aI473647
aI1269021
aI399819
aI1749669
aI1538196
aI1072420
aI1662245
aI56614
aI1203495
aI580904
aI1400107
aI1858860
aI1170733
aI89390
aI1629487
aI515378
aI154931
aI810293
aI777527
aI2022715
aI1236284
aI1039678
aI1727810
aI1531203
aI515396
aI810313
aI1400141
aI187726
aI744783
aI1891665
aI861411
aI2055509
aI417112
aI777561
aI1236315
aI351580
aI904329
aI2317663
aI122208
aI1016638
aI77847
aI449894
aI974183
aI1301865
aI810347
aI2153837
aI1695087
aI744816
aI413587
aI976105
aI2284922
aI515459
aI1138052
aI1400197
aI768577
aI1432969
aI744843
aI2055566
aI2022799
aI2153872
aI1036184
aI919976
aI941460
aI2286830
aI1596822
aI1793433
aI959727
aI512538
aI1596835
aI2284965
aI56744
aI1047111
aI286126
aI548273
aI1203634
aI1347486
aI2232223
aI1695164
aI1041653
aI712128
aI351683
aI351684
aI828662
aI1249185
aI1596872
aI548300
aI2285005
aI2317774
aI384463
aI89552
aI2088402
aI4003
aI1465812
aI2075038
aI1170903
aI544676
aI1990106
aI1859040
aI96848
aI2219490
aI548324
aI646629
aI941542
aI2088423
aI318952
aI2317802
aI1793516
aI2030162
aI148268
aI1269232
aI2317809
aI2124
aI2252276
aI1891829
aI2219510
aI1642409
aI712184
aI1161812
aI1105404
aI679421
aI777726
aI2153983
aI1203714
aI1105412
aI1793541
aI974345
aI1440002
aI55358
aI1579888
aI1465870
aI1072655
aI384528
aI876049
aI2285074
aI24083
aI122389
aI712214
aI2308542
aI89628
aI1531425
aI1039909
aI810535
aI1728043
aI431799
aI286254
aI515631
aI1334833
aI2154035
aI417332
aI2088502
aI1760825
aI1957435
aI1429429
aI908864
aI2121281
aI535029
aI1498691
aI548421
aI908873
aI974410
aI220747
aI941644
aI713997
aI1990226
aI548438
aI1891927
aI745049
aI2285146
aI2055772
aI384606
aI506469
aI1302114
aI1105507
aI1728100
aI1171048
aI1695340
aI1138287
aI1990256
aI712305
aI319094
aI1039991
aI286328
aI2154108
aI646781
aI1171070
aI948843
aI2088582
aI1760903
aI24200
aI1105545
aI2252426
aI1498763
aI2068418
aI1793681
aI2317970
aI515731
aI1662612
aI2254105
aI56984
aI1676126
aI417434
aI375407
aI304410
aI1543009
aI1629855
aI1892004
aI1072805
aI866929
aI2186922
aI1367723
aI1203884
aI1171118
aI1531571
aI417460
aI2023093
aI1239677
aI839625
aI1138360
aI490100
aI1105594
aI1367742
aI1516832
aI155330
aI1593291
aI1597124
aI1680673
aI57032
aI777929
aI1728206
aI24271
aI24272
aI1629905
aI286418
aI1236694
aI417495
aI2285272
aI188123
aI909021
aI1497839
aI1662688
aI57058
aI2285283
aI1564389
aI941798
aI1629927
aI57066
aI2188583
aI1892079
aI1203952
aI195198
aI1728246
aI581367
aI1773673
aI1931903
aI548604
aI1236734
aI646911
aI384768
aI1171201
aI1105671
aI548616
aI992556
aI2088715
aI1171214
aI2147063
aI24337
aI2036859
aI2055957
aI1990422
aI1629975
aI1138456
aI2177668
aI614171
aI1761052
aI1597213
aI1564446
aI2121504
aI1105697
aI1138466
aI876323
aI1236773
aI745254
aI1598769
aI1892136
aI1695530
aI1833607
aI450356
aI466724
aI1204024
aI253753
aI2294367
aI909115
aI450364
aI941885
aI1761087
aI188224
aI1318457
aI1433410
aI2187075
aI1269572
aI1924934
aI155463
aI2039043
aI2056009
aI57162
aI2285387
aI909132
aI974671
aI155472
aI1761106
aI1531731
aI1549126
aI1817230
aI1466198
aI1335130
aI2046607
aI1302366
aI1630047
aI80528
aI745314
aI2243217
aI581480
aI1662825
aI309603
aI319340
aI208128
aI1040242
aI64147
aI1662836
aI2121589
aI2088823
aI916116
aI1335162
aI1172799
aI2161459
aI834197
aI1695617
aI417666
aI1761156
aI188294
aI1499015
aI1367947
aI286604
aI1318299
aI885721
aI614292
aI57240
aI2219931
aI1892257
aI1770628
aI1236900
aI2154405
aI1859495
aI1468378
aI828743
aI2056111
aI1171379
aI1793974
aI384951
aI679864
aI1105850
aI1469477
aI1925054
aI1564608
aI189771
aI1859526
aI1750989
aI1335245
aI1598353
aI1466319
aI921592
aI1990610
aI1932117
aI1466327
aI581596
aI2154461
aI1138654
aI2088927
aI2154464
aI1925089
aI1138658
aI1593339
aI1105894
aI1630183
aI1400808
aI2183164
aI1156099
aI1047207
aI2285548
aI450541
aI1597422
aI1105903
aI1466355
aI450548
aI1368053
aI1400823
aI286712
aI336886
aI778235
aI122877
aI24578
aI2285571
aI352261
aI614407
aI1269768
aI24585
aI1826828
aI637613
aI221200
aI1990674
aI1150979
aI1433623
aI2318360
aI1990681
aI1466394
aI417819
aI1832028
aI905221
aI1826848
aI1094909
aI643078
aI1121410
aI981681
aI647208
aI1074524
aI1522946
aI942123
aI1597486
aI1563318
aI319536
aI1859634
aI581683
aI1957940
aI647221
aI1728566
aI417847
aI1484757
aI1041759
aI1531965
aI876606
aI1237055
aI1335360
aI1531971
aI2121796
aI1466440
aI2285642
aI188491
aI413268
aI647249
aI778324
aI1686201
aI1990745
aI1990746
aI937999
aI286812
aI1314832
aI155749
aI581735
aI974952
aI1656066
aI2023531
aI1859692
aI1342141
aI90224
aI1189224
aI380947
aI1007732
aI1812098
aI221303
aI286842
aI909437
aI843903
aI1466496
aI1942891
aI1728644
aI2154630
aI1859720
aI581769
aI909451
aI1237132
aI286863
aI2121872
aI417937
aI1564818
aI516243
aI763523
aI123029
aI1060736
aI1335447
aI1663128
aI1292996
aI2056346
aI1794205
aI1695902
aI123042
aI221348
aI1925285
aI1925286
aI286888
aI188585
aI1029049
aI1718983
aI1302705
aI1925298
aI1499315
aI1597620
aI2192317
aI1859766
aI877940
aI115393
aI1597631
aI811200
aI975041
aI2056388
aI1007819
aI745676
aI1292723
aI1630415
aI2187472
aI1990866
aI2101283
aI1466581
aI2089174
aI680151
aI1630424
aI418010
aI2018325
aI1138913
aI1404019
aI1794276
aI450793
aI1480119
aI1695982
aI1171695
aI2187504
aI337539
aI483572
aI123125
aI876791
aI2008659
aI1354919
aI909566
aI2325205
aI811267
aI2330549
aI2106469
aI975112
aI1516930
aI626733
aI483601
aI1794323
aI1368340
aI2318614
aI932569
aI483107
aI1401115
aI1303637
aI626736
aI1663266
aI1794339
aI1499429
aI647464
aI680234
aI24876
aI90414
aI90415
aI1925426
aI1073459
aI942389
aI614710
aI778552
aI1270073
aI549178
aI2023741
aI90431
aI1532225
aI2187586
aI84846
aI57671
aI319816
aI2084919
aI876879
aI2201179
aI1171793
aI1958226
aI123219
aI1925461
aI57688
aI155995
aI1597788
aI319838
aI1106272
aI811364
aI1958245
aI1565032
aI647529
aI1204586
aI581995
aI352620
aI779666
aI2253166
aI331837
aI909681
aI877008
aI352629
aI713082
aI1648021
aI2089345
aI1663363
aI582021
aI1728902
aI1216577
aI1532296
aI2314027
aI1892746
aI1139086
aI549265
aI1003587
aI1368469
aI1302934
aI1073559
aI549275
aI1040799
aI129776
aI1434019
aI867057
aI614824
aI942505
aI107933
aI1886718
aI909745
aI745908
aI1320009
aI582071
aI811448
aI2220473
aI647610
aI745915
aI1237437
aI975294
aI647615
aI2154944
aI385475
aI2122180
aI1915638
aI352710
aI1434055
aI1958344
aI25035
aI1335756
aI2122192
aI1171921
aI2154962
aI614869
aI2161401
aI778713
aI942555
aI1892831
aI745954
aI123363
aI1139173
aI1860071
aI2195097
aI909803
aI975340
aI1106414
aI2325245
aI1991152
aI57842
aI745971
aI2286068
aI264696
aI1827321
aI1827323
aI265528
aI2286081
aI320002
aI2041259
aI714156
aI675928
aI90642
aI1401365
aI2187798
aI287255
aI2106799
aI1663516
aI221725
aI1303070
aI614943
aI451110
aI2187815
aI1630760
aI516650
aI1696427
aI57907
aI90676
aI2052190
aI254519
aI1729080
aI1622053
aI451133
aI2253374
aI221760
aI266336
aI385602
aI555787
aI1719052
aI1216068
aI69730
aI451150
aI1139280
aI1401425
aI2155090
aI1822819
aI25172
aI2089557
aI614998
aI1892951
aI713304
aI582234
aI1466972
aI2089565
aI1401438
aI451169
aI1699728
aI877156
aI647781
aI2276113
aI1368680
aI2056810
aI483952
aI778865
aI385650
aI2226963
aI1991284
aI320117
aI2089590
aI549495
aI1794684
aI1151082
aI909950
aI654101
aI646549
aI1630849
aI975490
aI927209
aI1915670
aI1794694
aI1565320
aI1401484
aI2253453
aI1073806
aI1178392
aI2115939
aI1401493
aI861636
aI352924
aI1467037
aI1893829
aI746145
aI1565346
aI90787
aI1605893
aI680613
aI1696423
aI2024104
aI959943
aI1958572
aI1663661
aI713391
aI2024112
aI1630898
aI1630900
aI746166
aI2074057
aI1204923
aI1702709
aI717878
aI1204926
aI1696448
aI408352
aI1827522
aI1270467
aI549572
aI1270471
aI1369548
aI2140548
aI1860299
aI1205709
aI418512
aI1560696
aI1860306
aI58067
aI770279
aI1532629
aI811735
aI1565402
aI1106651
aI1893084
aI1532637
aI1106658
aI331899
aI1520787
aI1893093
aI811750
aI1008363
aI1630958
aI1237743
aI1729264
aI1991409
aI1270518
aI1637161
aI320253
aI320254
aI1846039
aI156419
aI1888385
aI451337
aI582410
aI222679
aI942860
aI123662
aI654125
aI1532694
aI288007
aI1440559
aI713500
aI1139485
aI1434406
aI452573
aI561287
aI1303340
aI287533
aI353070
aI123698
aI1555251
aI313666
aI2253624
aI713531
aI1467196
aI1598270
aI621365
aI2057696
aI2336225
aI473911
aI844621
aI746318
aI643213
aI2089808
aI1434450
aI2252939
aI2188118
aI1041240
aI2253657
aI967588
aI746333
aI419301
aI2155361
aI222050
aI254823
aI549738
aI2089835
aI2122604
aI549741
aI90990
aI1663856
aI90995
aI1270644
aI867134
aI370153
aI135316
aI1926010
aI844667
aI1598332
aI1074046
aI2145099
aI1532802
aI942979
aI905366
aI2024327
aI877450
aI844683
aI484236
aI1368974
aI2106861
aI91024
aI1958801
aI1031499
aI877460
aI1025518
aI975766
aI1101799
aI342852
aI1569059
aI1926044
aI2319262
aI451489
aI1991586
aI1762212
aI2122662
aI91047
aI320424
aI670535
aI108018
aI58286
aI987293
aI91057
aI320436
aI1958838
aI1926071
aI1861108
aI156603
aI769581
aI1921239
aI1237951
aI615360
aI1336257
aI1592809
aI1631172
aI156613
aI353224
aI2188234
aI1271287
aI1118370
aI1205198
aI1396406
aI1270736
aI118947
aI1729492
aI1958869
aI27038
aI2205177
aI811994
aI746459
aI157178
aI877535
aI91104
aI1303521
aI2122722
aI1827812
aI1532901
aI1041382
aI123881
aI1041387
aI1795054
aI1572079
aI222194
aI746486
aI1991675
aI1205247
aI320514
aI123908
aI987234
aI1598470
aI1762311
aI1500170
aI1598475
aI484866
aI287760
aI2286609
aI2253844
aI746518
aI47961
aI58392
aI943129
aI1189227
aI1593519
aI287773
aI1565729
aI1762338
aI255012
aI943142
aI1653596
aI714247
aI590064
aI189487
aI156720
aI975923
aI1991735
aI2253880
aI2090041
aI58429
aI954549
aI812097
aI156738
aI451651
aI877636
aI2319429
aI451654
aI615500
aI255053
aI451664
aI189525
aI1172566
aI1986745
aI975963
aI386140
aI1626298
aI2188382
aI1606999
aI1664101
aI1041511
aI681066
aI1205355
aI1991791
aI2156929
aI320625
aI746611
aI1702761
aI287864
aI124025
aI102591
aI1664124
aI1500285
aI2057343
aI255105
aI681093
aI484486
aI648327
aI844937
aI1467530
aI1565836
aI1500301
aI222351
aI255121
aI1664147
aI320661
aI2090140
aI1702769
aI353450
aI2226717
aI844972
aI2286769
aI686963
aI594433
aI2090165
aI1926326
aI353463
aI419000
aI91321
aI189630
aI484545
aI222402
aI1265867
aI1107141
aI255521
aI681160
aI1991883
aI1008846
aI1893584
aI31608
aI910883
aI2221270
aI222423
aI1631453
aI2155742
aI189664
aI1696995
aI1451558
aI320742
aI517351
aI1637244
aI2188522
aI1762539
aI1238254
aI2319599
aI156914
aI1664245
aI1205494
aI1369335
aI222457
aI2090237
aI1822933
aI1991937
aI484613
aI2319623
aI321068
aI1396951
aI578069
aI386317
aI191809
aI1254957
aI615696
aI1233112
aI550163
aI615705
aI779546
aI2019546
aI648478
aI320801
aI172519
aI648483
aI1124726
aI894513
aI1762600
aI2155817
aI1981319
aI42546
aI484654
aI976175
aI1768328
aI641098
aI119007
aI320828
aI1336638
aI2221375
aI1631552
aI2254147
aI2319685
aI2188855
aI1008977
aI1003747
aI517461
aI157016
aI157017
aI189786
aI157019
aI1926492
aI419167
aI746848
aI550241
aI1762659
aI25957
aI1074534
aI91500
aI714098
aI320884
aI2057589
aI877945
aI484731
aI2319740
aI1959293
aI189822
aI1664383
aI2288476
aI91525
aI124294
aI550280
aI1822956
aI157066
aI583051
aI1402254
aI615824
aI91537
aI288146
aI550293
aI506777
aI189848
aI255387
aI1119447
aI688278
aI1074591
aI386465
aI1041826
aI1948571
aI1402438
aI615846
aI583079
aI600509
aI419241
aI1107370
aI255404
aI2221485
aI1598894
aI211869
aI1336752
aI1435057
aI878003
aI1172918
aI1205688
aI1778049
aI550330
aI2057659
aI157116
aI1325499
aI1425883
aI288194
aI2036916
aI91588
aI812485
aI1861063
aI1172937
aI1697227
aI2287052
aI91597
aI2106957
aI2287057
aI212547
aI1304019
aI566862
aI1626361
aI1631705
aI1762781
aI2014117
aI1467872
aI1830205
aI648679
aI290018
aI1271277
aI1151229
aI1014696
aI681458
aI1910355
aI1467892
aI714229
aI976375
aI2090488
aI321017
aI91642
aI665173
aI1107456
aI1205762
aI648708
aI124422
aI58887
aI1604525
aI829016
aI26130
aI321048
aI1599003
aI747037
aI1730079
aI1074720
aI681505
aI2123298
aI1435171
aI80817
aI2123304
aI1533481
aI353835
aI1828396
aI1959469
aI124463
aI2156081
aI714295
aI484921
aI2287162
aI1926716
aI1435197
aI1667027
aI2221632
aI484934
aI681569
aI367228
aI648781
aI2333708
aI353871
aI910931
aI2188885
aI1009240
aI1860158
aI747100
aI1633149
aI943717
aI1107553
aI1631842
aI517731
aI960102
aI910950
aI1193478
aI812651
aI2254445
aI1485901
aI1074799
aI26225
aI1691923
aI1992310
aI1369720
aI714362
aI1205481
aI1500796
aI1028718
aI714366
aI714367
aI555968
aI1418859
aI1304196
aI943751
aI1861257
aI1369738
aI157323
aI124557
aI550546
aI1140371
aI943764
aI1468053
aI91798
aI987417
aI1238681
aI878235
aI2123421
aI452254
aI2254495
aI1959585
aI726208
aI2025123
aI1795749
aI288423
aI2254504
aI124585
aI1932231
aI1762988
aI845486
aI2183453
aI2156208
aI681649
aI616114
aI823582
aI2243529
aI714425
aI583354
aI610409
aI812732
aI2025150
aI1992383
aI2123457
aI1926850
aI910966
aI839969
aI1926856
aI255690
aI550605
aI943822
aI1500879
aI1238740
aI354005
aI1730262
aI2156247
aI1697496
aI2025179
aI1173114
aI1566430
aI1588176
aI747235
aI1468132
aI1009381
aI1861350
aI386795
aI2221805
aI845550
aI1369839
aI2156274
aI1828595
aI1697406
aI452342
aI1042169
aI534143
aI1759798
aI91904
aI1484416
aI2287363
aI1369860
aI59141
aI452358
aI386827
aI1828620
aI566914
aI1402640
aI255761
aI354066
aI2107011
aI1757486
aI2189078
aI2102367
aI26397
aI1173280
aI681765
aI1452887
aI1959720
aI1162204
aI1074986
aI2320172
aI878381
aI26415
aI2025267
aI223029
aI321336
aI1151284
aI2156347
aI714557
aI2025281
aI255810
aI2086403
aI1173322
aI1741111
aI1337164
aI1571810
aI1271630
aI779917
aI1107792
aI659768
aI2156370
aI714580
aI1173334
aI1501021
aI1140574
aI2189151
aI1912541
aI92003
aI1206116
aI665233
aI92009
aI1107819
aI1582738
aI190318
aI1388799
aI1763184
aI550769
aI59250
aI2270867
aI321400
aI2320020
aI2199509
aI872767
aI2320255
aI124800
aI944001
aI150367
aI1664901
aI2090887
aI1763208
aI1096377
aI649098
aI1025687
aI1909269
aI26510
aI1566607
aI1402770
aI944019
aI1271704
aI321433
aI1861530
aI1468315
aI2025375
aI1173408
aI2263887
aI1495366
aI911270
aI747431
aI550827
aI2025388
aI2156463
aI1501104
aI1009585
aI878515
aI483359
aI1501112
aI140959
aI1075133
aI1730494
aI1206210
aI1566663
aI1927113
aI26571
aI1631333
aI1599439
aI1075152
aI1697745
aI1992662
aI1129465
aI2041508
aI2090970
aI583644
aI752634
aI911326
aI387039
aI681952
aI971088
aI1468386
aI681955
aI255972
aI914538
aI452585
aI1468394
aI2156523
aI1828844
aI1075181
aI1093107
aI1304562
aI944115
aI2287604
aI223221
aI2320041
aI124921
aI2141148
aI92157
aI2123783
aI1619919
aI1271820
aI1828880
aI8688
aI2123795
aI829102
aI1570648
aI1337369
aI550941
aI387102
aI190495
aI452641
aI670726
aI1959975
aI518186
aI2254892
aI1042098
aI1599534
aI2254896
aI1501237
aI1763382
aI550971
aI714813
aI643424
aI1271876
aI1855841
aI878664
aI1653772
aI747594
aI387147
aI987490
aI125006
aI1632335
aI960184
aI838877
aI1681081
aI583770
aI1009756
aI1239133
aI2222176
aI1239140
aI354405
aI1126936
aI2254952
aI780395
aI1075309
aI977008
aI452722
aI944244
aI665278
aI1140855
aI911480
aI1992825
aI649340
aI1763454
aI2287745
aI1899457
aI872811
aI1894533
aI551046
aI2091143
aI157833
aI1009803
aI583821
aI1829006
aI878735
aI125072
aI1665171
aI2189460
aI1479022
aI714902
aI1566876
aI1501343
aI1076746
aI2255012
aI2189477
aI2320550
aI2320552
aI2189482
aI741746
aI747695
aI944305
aI1861810
aI682163
aI1730741
aI223414
aI1108151
aI1839476
aI539679
aI1730250
aI92350
aI489719
aI2058435
aI1009861
aI1927368
aI1403081
aI2314615
aI616652
aI1632461
aI1468624
aI131829
aI2058452
aI518357
aI977110
aI321751
aI1960152
aI1489956
aI157914
aI813275
aI1403100
aI2243621
aI714977
aI1708411
aI354532
aI649446
aI911591
aI420073
aI2058474
aI1698027
aI2222316
aI2189549
aI977137
aI72909
aI992979
aI682231
aI1272056
aI649465
aI452858
aI1072098
aI878845
aI289022
aI173781
aI1992960
aI190721
aI354562
aI1927430
aI1429889
aI611928
aI1566986
aI1992973
aI78958
aI92432
aI1403153
aI1380739
aI616724
aI485655
aI1468696
aI26905
aI157978
aI846107
aI2287900
aI2287901
aI1632544
aI1337633
aI2336476
aI1823111
aI420140
aI2227250
aI2287918
aI1501489
aI321844
aI386782
aI158007
aI1403194
aI2317366
aI1692042
aI616768
aI1960257
aI92482
aI2189640
aI354633
aI846154
aI1665355
aI1829196
aI1993037
aI1042767
aI485712
aI944465
aI1993043
aI1435988
aI1567064
aI2124124
aI26975
aI2320736
aI354657
aI2156900
aI1894758
aI813418
aI846187
aI158064
aI2236327
aI813426
aI715124
aI584054
aI1173880
aI610708
aI2287994
aI813440
aI1391680
aI780011
aI560649
aI496022
aI1042822
aI452999
aI780683
aI1206668
aI977293
aI59791
aI1282456
aI1966025
aI730862
aI1894806
aI233881
aI944536
aI1567130
aI387485
aI944542
aI2255263
aI1370529
aI256423
aI2091435
aI157426
aI256433
aI1042866
aI550643
aI932726
aI420284
aI879038
aI780735
aI780738
aI1588299
aI2170068
aI2058694
aI1993160
aI1817676
aI250274
aI453070
aI1042897
aI223698
aI1305043
aI59861
aI2058710
aI944600
aI790948
aI2303738
aI715230
aI1567199
aI223713
aI1763810
aI2254587
aI911844
aI1763815
aI616940
aI813549
aI1436142
aI1501682
aI453107
aI2058750
aI911872
aI2288129
aI1632771
aI1501701
aI1058561
aI1796616
aI682505
aI2288138
aI256523
aI1174029
aI1763855
aI451499
aI616977
aI322067
aI125460
aI715286
aI780825
aI2320923
aI59932
aI1441336
aI1682017
aI485926
aI1200561
aI1075755
aI1698348
aI1768541
aI2189872
aI1757619
aI387640
aI2087146
aI1698363
aI2288188
aI682559
aI2157120
aI1665601
aI322114
aI1075779
aI1370694
aI1419020
aI1239627
aI289356
aI518733
aI1043023
aI748112
aI948007
aI1829459
aI1567316
aI1272405
aI1436246
aI518745
aI1993306
aI158299
aI1043036
aI1665630
aI780898
aI354915
aI1370725
aI1665642
aI256620
aI518765
aI2026095
aI1399736
aI292239
aI364990
aI1650696
aI256631
aI486009
aI780922
aI1469052
aI1326186
aI599938
aI2222720
aI322177
aI1305218
aI1862275
aI2288260
aI1600135
aI932972
aI829207
aI1469070
aI2124432
aI1665684
aI912022
aI2288280
aI2328289
aI2288285
aI125599
aI1883248
aI1305251
aI1239717
aI1796775
aI1124773
aI1010346
aI846510
aI2026160
aI2052552
aI2026163
aI1796788
aI1867833
aI453302
aI1862328
aI1764025
aI1272506
aI1010364
aI977598
aI2255551
aI584384
aI1567425
aI1501890
aI1761909
aI1113206
aI1284079
aI2058955
aI762519
aI119769
aI355024
aI1436370
aI518868
aI1206998
aI748248
aI2222814
aI2023866
aI1603781
aI2157283
aI1338084
aI60133
aI1075942
aI387815
aI851068
aI2288364
aI1698543
aI879344
aI748276
aI715509
aI1665782
aI1927929
aI879354
aI2091774
aI1633023
aI2059010
aI584452
aI944901
aI813832
aI912137
aI736386
aI649999
aI1021037
aI2288403
aI486167
aI1239833
aI2052570
aI605317
aI1076001
aI1272611
aI781094
aI1731372
aI2288429
aI2059055
aI818170
aI599859
aI92980
aI191285
aI1796918
aI2288442
aI1174332
aI748350
aI387904
aI1043265
aI486215
aI486217
aI1141578
aI748363
aI944973
aI1141582
aI551761
aI2222931
aI1665878
aI845625
aI93016
aI1593828
aI519002
aI1987336
aI1141596
aI1633117
aI2124639
aI1010528
aI343530
aI1331686
aI2338023
aI945003
aI1965202
aI2321262
aI1412969
aI289649
aI2161811
aI2107198
aI2241006
aI355195
aI1108861
aI1784981
aI486272
aI208231
aI60293
aI583489
aI2255753
aI1211543
aI943938
aI901099
aI1862544
aI191378
aI879509
aI420759
aI682904
aI682910
aI1943365
aI2190240
aI945062
aI1403816
aI1227932
aI846762
aI322475
aI2251919
aI1610226
aI813999
aI977840
aI1960881
aI123059
aI2255800
aI2178207
aI1043388
aI322493
aI993099
aI846790
aI355271
aI682953
aI191435
aI224204
aI1641669
aI1959757
aI1928144
aI1064099
aI462467
aI1600471
aI93144
aI327679
aI355290
aI1633244
aI224222
aI2227365
aI1960928
aI224225
aI2326398
aI1403881
aI388074
aI748523
aI498827
aI1895405
aI1757693
aI125936
aI125937
aI1272818
aI1797107
aI1928180
aI1600502
aI1600508
aI2194602
aI748544
aI650241
aI683012
aI1076231
aI158728
aI48300
aI2255883
aI1010700
aI60429
aI1469459
aI715796
aI650261
aI1272854
aI650264
aI1043481
aI715805
aI289825
aI397830
aI2059303
aI1468253
aI2281992
aI343537
aI1666100
aI1338421
aI1633334
aI420921
aI289850
aI1061847
aI856586
aI1338430
aI1141823
aI519232
aI1502274
aI2157638
aI1109063
aI2255944
aI224330
aI572599
aI322639
aI93264
aI1403985
aI1403988
aI1698901
aI1670329
aI289881
aI1600602
aI1921551
aI2253016
aI1305693
aI763749
aI1338465
aI748646
aI1338472
aI715883
aI126062
aI519280
aI2288753
aI60530
aI1141875
aI551945
aI257143
aI1272953
aI126074
aI1228149
aI715900
aI2157695
aI2256000
aI781441
aI1535106
aI388227
aI322692
aI814213
aI1731720
aI1371273
aI1846229
aI1020439
aI50026
aI421006
aI552080
aI807448
aI1338516
aI1633429
aI650390
aI1240218
aI1043611
aI847004
aI1371293
aI2092190
aI998597
aI912545
aI2081393
aI1731749
aI322726
aI421031
aI2180406
aI617642
aI978093
aI2223278
aI93361
aI1535155
aI781492
aI823838
aI126136
aI453819
aI321719
aI978110
aI715967
aI453824
aI505029
aI781511
aI2223306
aI1483773
aI912590
aI847055
aI519376
aI748755
aI1862869
aI1535191
aI1600728
aI2026713
aI1174747
aI781532
aI631601
aI1008041
aI2157794
aI683237
aI650470
aI2256103
aI912617
aI847082
aI1797355
aI421100
aI1961197
aI1109230
aI1118760
aI1338610
aI158963
aI1535223
aI976399
aI355577
aI879868
aI1961213
aI2026750
aI2059525
aI1174609
aI1993991
aI1502474
aI224525
aI683278
aI2092304
aI453905
aI847122
aI584980
aI1338646
aI1462831
aI2157852
aI519454
aI960389
aI1961248
aI1375451
aI2125092
aI1764646
aI1227023
aI1502504
aI1764649
aI2256175
aI519472
aI453940
aI388405
aI421175
aI486715
aI781628
aI1648522
aI1338686
aI912703
aI1436992
aI81120
aI1109315
aI552260
aI86582
aI1568073
aI307539
aI2157901
aI126289
aI1174867
aI354190
aI1961302
aI421212
aI1404253
aI1850597
aI1142112
aI93537
aI627259
aI1666404
aI879975
aI667613
aI1136799
aI1076589
aI332349
aI622877
aI184894
aI1568118
aI1830264
aI1797498
aI1371515
aI1666429
aI440598
aI75669
aI847232
aI1916139
aI1464399
aI1305990
aI315969
aI2157960
aI244972
aI1469834
aI2296564
aI905794
aI1568143
aI322960
aI1763224
aI454034
aI388499
aI1338772
aI1731989
aI1240470
aI716183
aI1887498
aI1895835
aI878490
aI627269
aI1850608
aI1828763
aI748966
aI2321833
aI1699242
aI42909
aI2092464
aI277747
aI1863094
aI1102409
aI1600959
aI676427
aI1338821
aI748998
aI519626
aI2209383
aI714658
aI749006
aI847313
aI10147
aI617942
aI1109463
aI1732057
aI351189
aI650718
aI2190815
aI873040
aI1994211
aI2289124
aI157606
aI1233489
aI179452
aI847338
aI1043947
aI454124
aI1961453
aI1961454
aI1970771
aI2158071
aI1109497
aI1666555
aI1817669
aI1233493
aI159232
aI1009579
aI2158084
aI1364566
aI1732105
aI2092554
aI323084
aI1375490
aI1124802
aI1863185
aI978450
aI134056
aI2027028
aI192021
aI650774
aI421401
aI1894319
aI93724
aI847392
aI749089
aI1011236
aI454181
aI60966
aI2289191
aI1914781
aI2172887
aI1385583
aI945708
aI251899
aI234441
aI519732
aI1064201
aI945721
aI2321978
aI1928763
aI552509
aI618046
aI749119
aI1863232
aI1490187
aI781892
aI388678
aI1905249
aI18398
aI1764937
aI224844
aI323150
aI880207
aI2059857
aI1525249
aI1522958
aI2092631
aI1011288
aI1535577
aI1863258
aI1654031
aI231169
aI1338973
aI2125408
aI1044065
aI2059876
aI1961573
aI1273446
aI880231
aI1011307
aI355949
aI159342
aI290415
aI28272
aI1741416
aI257651
aI454261
aI159350
aI749175
aI61048
aI1273465
aI1666682
aI683645
aI945791
aI1666688
aI2322051
aI1714759
aI1273481
aI195863
aI650893
aI93838
aI1502867
aI1555737
aI2167927
aI1666716
aI1797791
aI295548
aI1601186
aI1457435
aI716452
aI683687
aI1863336
aI1601193
aI2074567
aI978606
aI1548729
aI1918059
aI454324
aI421557
aI665545
aI257720
aI1761298
aI2256573
aI1797824
aI356036
aI2158278
aI1686817
aI2191051
aI2191052
aI978639
aI831188
aI1142481
aI421587
aI945876
aI1470165
aI192214
aI847577
aI2191067
aI2223837
aI1452148
aI234107
aI782052
aI1371877
aI323302
aI1760938
aI1011432
aI1588519
aI323308
aI1044205
aI1699567
aI323313
aI1464151
aI380118
aI2322166
aI2047273
aI1961720
aI1987199
aI2096426
aI1076990
aI1175295
aI1371905
aI1502981
aI1306374
aI2191112
aI1208074
aI1140695
aI1208076
aI1371921
aI1404694
aI2256665
aI1097007
aI840026
aI681946
aI2282117
aI1797920
aI388898
aI388902
aI1175337
aI1260850
aI1140701
aI159536
aI1044275
aI1175350
aI454456
aI847674
aI651067
aI94012
aI913213
aI2322238
aI1195317
aI1337312
aI1208130
aI1109830
aI356169
aI1535821
aI1072327
aI2069133
aI487248
aI421717
aI2027352
aI763876
aI2256730
aI1863516
aI403429
aI1306465
aI2346879
aI1931199
aI1765225
aI664029
aI192365
aI1339248
aI1311397
aI365203
aI1699701
aI683894
aI28535
aI1142649
aI946042
aI933183
aI1175421
aI978816
aI1732483
aI529046
aI323462
aI2276673
aI1573269
aI520073
aI627351
aI290702
aI228997
aI1994644
aI1044374
aI922956
aI321519
aI1896348
aI2289565
aI290721
aI1961892
aI1339302
aI880551
aI192424
aI1601449
aI1732525
aI1666990
aI1109935
aI2256819
aI1470388
aI1404853
aI1634231
aI1699768
aI192445
aI780277
aI552897
aI2125763
aI120977
aI1178956
aI1306571
aI356300
aI123819
aI257998
aI1470415
aI1863632
aI960504
aI946131
aI2071918
aI26617
aI651224
aI421851
aI1044444
aI998736
aI749538
aI2117746
aI2245067
aI651241
aI2093034
aI487403
aI605522
aI1351773
aI2060271
aI1798128
aI520177
aI1732595
aI2256887
aI356344
aI946169
aI2027514
aI1110013
aI392533
aI231183
aI258049
aI873131
aI598017
aI1211018
aI1460266
aI94216
aI1339401
aI323594
aI2322444
aI880656
aI1372179
aI520213
aI1011735
aI1960625
aI87699
aI815133
aI2280638
aI823984
aI1273890
aI1830952
aI687452
aI978986
aI651309
aI965981
aI2088288
aI1044532
aI2215389
aI1648318
aI1830968
aI1667130
aI2027579
aI1765438
aI2027583
aI514879
aI1077314
aI684099
aI782404
aI159814
aI389191
aI979017
aI1994826
aI605538
aI651342
aI1437777
aI225366
aI487511
aI2125913
aI2009728
aI1610426
aI288784
aI428103
aI192614
aI1667179
aI487533
aI1011822
aI389231
aI2077678
aI782454
aI1962103
aI1405048
aI1306745
aI1604970
aI979073
aI1962115
aI651396
aI1124703
aI1142923
aI2069186
aI1699982
aI61583
aI811669
aI1021166
aI848018
aI585875
aI618644
aI1699989
aI1470614
aI1077399
aI28825
aI2125980
aI2336794
aI144989
aI1732767
aI880804
aI1937716
aI846586
aI716970
aI880811
aI159919
aI389296
aI257376
aI1437874
aI1667251
aI1883508
aI1044668
aI185034
aI703861
aI2223593
aI638499
aI1241287
aI1601738
aI1896651
aI1553733
aI2020079
aI1752440
aI61650
aI28884
aI1561294
aI1142998
aI1044695
aI317709
aI1765597
aI1110240
aI585954
aI2257125
aI1732839
aI1863912
aI815337
aI127210
aI1274093
aI848114
aI1933354
aI389370
aI403498
aI1863934
aI1878059
aI1503492
aI1143046
aI1306887
aI616492
aI651530
aI2036228
aI258316
aI698413
aI2226869
aI1899907
aI651540
aI1437973
aI2191640
aI1143065
aI913692
aI1757914
aI1765663
aI684320
aI651555
aI651557
aI454950
aI880935
aI2126120
aI2289961
aI782635
aI1505506
aI1077549
aI684334
aI1896751
aI1405233
aI782642
aI1143091
aI684340
aI520506
aI127291
aI2311846
aI2030987
aI1896774
aI2126151
aI1929544
aI291146
aI323916
aI1864016
aI2134755
aI1110357
aI2093398
aI717145
aI1995099
aI1175902
aI824037
aI848224
aI1995106
aI979300
aI1929574
aI1175913
aI913770
aI2126190
aI651634
aI2290035
aI1995125
aI881014
aI2158972
aI848254
aI1110402
aI160131
aI455048
aI1938246
aI1429359
aI1146263
aI127372
aI2191761
aI1807086
aI2080153
aI323993
aI1601946
aI1700251
aI323996
aI1798558
aI1307040
aI1044898
aI1241507
aI1241512
aI540060
aI2290090
aI59463
aI160175
aI1175984
aI1989008
aI238239
aI2126265
aI815546
aI2025546
aI1077696
aI277920
aI1321237
aI782789
aI1569224
aI1339851
aI848333
aI1628936
aI2058317
aI1503696
aI1077713
aI1241556
aI1503701
aI1274327
aI487898
aI94683
aI1536476
aI1208798
aI651743
aI2238544
aI1339875
aI1667557
aI1438183
aI455144
aI979433
aI881130
aI1110509
aI1929710
aI586224
aI1372657
aI1744597
aI225780
aI61941
aI1752489
aI834986
aI324095
aI684545
aI882258
aI2093573
aI29191
aI1733130
aI84989
aI1864204
aI1765902
aI61968
aI501848
aI1405458
aI815635
aI586261
aI1339926
aI1536535
aI1471006
aI1831455
aI455203
aI922374
aI1831462
aI277937
aI225834
aI782891
aI193068
aI1929775
aI1962544
aI29233
aI1223039
aI1372724
aI2126391
aI258620
aI324158
aI261557
aI1976416
aI631647
aI881219
aI750148
aI62021
aI1536582
aI1241672
aI1151756
aI1798730
aI1372747
aI1667660
aI913997
aI1945368
aI1208912
aI442882
aI193107
aI2195237
aI717398
aI225881
aI324186
aI62045
aI2290271
aI225893
aI2159206
aI258663
aI486528
aI1176173
aI848494
aI914032
aI1814296
aI944803
aI1831542
aI422524
aI187559
aI881280
aI225921
aI338027
aI1634950
aI848519
aI979593
aI553614
aI651921
aI1962642
aI2323091
aI1222766
aI1020697
aI1897114
aI422555
aI1471132
aI1929887
aI1667744
aI815778
aI1872667
aI1113542
aI488103
aI1536681
aI1012394
aI1733294
aI1698776
aI193205
aI1569463
aI714868
aI619194
aI1241787
aI2060991
aI1602244
aI1929926
aI881351
aI553673
aI750282
aI1172516
aI245197
aI357075
aI2224855
aI1962712
aI1503962
aI1100838
aI750301
aI1012446
aI783071
aI1635041
aI1962722
aI193252
aI2315046
aI1274598
aI1730684
aI652010
aI1569515
aI2323181
aI1925733
aI1045234
aI1700596
aI1569528
aI160507
aI1405692
aI1504001
aI1078018
aI512811
aI1176324
aI357126
aI59521
aI586504
aI1241869
aI1315629
aI1241873
aI2061075
aI2126612
aI889646
aI2323224
aI1364783
aI2028317
aI1307422
aI15166
aI1110820
aI1274663
aI1263419
aI1307434
aI291630
aI881456
aI2028337
aI365363
aI717620
aI1536822
aI1930041
aI815934
aI1504065
aI1766213
aI2126662
aI1504071
aI1895119
aI2336788
aI2093902
aI1127029
aI586576
aI521045
aI750423
aI1307480
aI1078108
aI2126685
aI1667934
aI258911
aI1700705
aI922427
aI586598
aI1995625
aI881516
aI1864558
aI815984
aI395973
aI2107539
aI1989023
aI848757
aI1995639
aI1373049
aI881530
aI676671
aI160636
aI1490410
aI665749
aI906048
aI521090
aI2225029
aI488326
aI1019009
aI848779
aI979852
aI1045390
aI1855906
aI914320
aI1373074
aI783252
aI29590
aI1583257
aI2192281
aI422810
aI1242014
aI1373090
aI2093987
aI1340324
aI2323365
aI1700774
aI2342385
aI1471400
aI1255580
aI1864619
aI1930156
aI1963929
aI1839944
aI62388
aI1014646
aI1962937
aI1733562
aI1864635
aI1471420
aI1962941
aI881598
aI652225
aI95171
aI78457
aI1463116
aI652238
aI816081
aI2094034
aI1602515
aI2028502
aI1051489
aI1700825
aI1876989
aI2257885
aI2323422
aI1340383
aI1078246
aI1635303
aI1831914
aI1242091
aI1537004
aI1930221
aI1728247
aI1140904
aI816114
aI1012725
aI1648809
aI455674
aI357371
aI2323452
aI1386666
aI390142
aI1405952
aI1864711
aI979980
aI1569805
aI1176590
aI905536
aI1045522
aI1391089
aI357397
aI1889114
aI1176608
aI586785
aI1111074
aI2257955
aI1569828
aI605702
aI160806
aI685096
aI488489
aI848938
aI1834503
aI29740
aI2159661
aI1373233
aI1406005
aI390198
aI1012791
aI2257976
aI1537082
aI1771527
aI2126908
aI2094141
aI1304757
aI2256187
aI2115601
aI1373254
aI554055
aI1766475
aI2290764
aI201571
aI324693
aI1537110
aI1992889
aI1111129
aI1111132
aI652382
aI1864802
aI1012835
aI324710
aI2323559
aI1937748
aI862396
aI324714
aI2134887
aI1504365
aI1209454
aI1482747
aI409107
aI357492
aI1143925
aI1406071
aI291960
aI2159738
aI78463
aI1012860
aI390269
aI2159742
aI62594
aI717957
aI259206
aI29831
aI980107
aI2323596
aI1373325
aI2192530
aI1960131
aI1111189
aI455832
aI423065
aI2127003
aI1733788
aI1648837
aI2225314
aI29859
aI1012903
aI1111208
aI685225
aI2127020
aI1012909
aI423086
aI29873
aI1602738
aI1602739
aI586932
aI2025673
aI1471674
aI86901
aI1701058
aI2287819
aI652486
aI1599692
aI2127050
aI1971063
aI1293858
aI1668303
aI259283
aI1242325
aI1504473
aI2094298
aI95451
aI873338
aI2258142
aI1209567
aI1943760
aI1766626
aI1635555
aI2192615
aI1471720
aI193769
aI1111274
aI676406
aI2290925
aI455918
aI292081
aI1760617
aI1438964
aI1209589
aI354523
aI2192632
aI1307897
aI1471738
aI1930491
aI2192640
aI2061570
aI652547
aI1766660
aI1135489
aI1179180
aI1373450
aI1832203
aI1701132
aI1438990
aI128271
aI878808
aI1635603
aI1897749
aI193816
aI1872772
aI161053
aI1733918
aI1889157
aI1326627
aI1439011
aI1242406
aI48689
aI1930539
aI850989
aI1209648
aI1111347
aI1307957
aI226614
aI1242423
aI2061624
aI1897785
aI352343
aI685373
aI1621557
aI292162
aI1397643
aI1897796
aI2159941
aI881991
aI1897800
aI1938316
aI1013066
aI2225485
aI2323790
aI720440
aI128339
aI1537366
aI685399
aI1566948
aI2225500
aI1242462
aI980321
aI1668450
aI1785403
aI944359
aI1176941
aI1512216
aI1176943
aI1386728
aI2291058
aI1406323
aI95610
aI128380
aI1602941
aI1275262
aI1799555
aI1176964
aI1308037
aI95623
aI1602954
aI783755
aI1242508
aI1832333
aI1537423
aI423315
aI1930644
aI72796
aI1994497
aI1439133
aI343621
aI95648
aI980386
aI1078691
aI196166
aI1960177
aI782506
aI1766825
aI1696619
aI2323885
aI1766831
aI1570224
aI2189810
aI1996212
aI1013173
aI1930678
aI751031
aI1603001
aI2061754
aI2127292
aI1048138
aI1144255
aI30148
aI2127302
aI2014139
aI652751
aI783825
aI1734098
aI947667
aI1078740
aI1045973
aI783627
aI1423838
aI1668570
aI1934487
aI1144285
aI119717
aI1840707
aI521698
aI652771
aI1013220
aI1373672
aI1537513
aI1045995
aI357871
aI381864
aI2192882
aI2192887
aI751096
aI947706
aI30203
aI1013245
aI1504772
aI1439238
aI587271
aI1930761
aI128523
aI2225676
aI1439245
aI1233837
aI1275409
aI2225683
aI1439254
aI1031769
aI2061848
aI259610
aI1130074
aI1144350
aI76037
aI63011
aI849444
aI1537574
aI2127400
aI1373738
aI1177131
aI2249650
aI556637
aI587315
aI259636
aI1225096
aI2264718
aI1865275
aI2127420
aI816702
aI2192960
aI2225729
aI2258498
aI2324035
aI253059
aI587334
aI1637985
aI456265
aI1832524
aI63053
aI2156813
aI194128
aI292433
aI1504850
aI620121
aI1111642
aI1185976
aI1963613
aI1428207
aI977168
aI387269
aI1545147
aI2258532
aI587365
aI354577
aI676796
aI652908
aI2324077
aI2061936
aI521841
aI652914
aI2160247
aI95864
aI325242
aI1209979
aI523882
aI751230
aI1013375
aI1209985
aI881552
aI1073591
aI554631
aI2320663
aI456332
aI54210
aI30354
aI1210004
aI1146478
aI2324121
aI1570458
aI1620308
aI1275548
aI977178
aI63134
aI663327
aI95906
aI1210021
aI2225831
aI554664
aI587433
aI292523
aI1112873
aI1504942
aI423599
aI1046192
aI1963697
aI358066
aI1242804
aI1636022
aI1439415
aI161464
aI30395
aI652988
aI1046206
aI1277557
aI2193088
aI2091296
aI1013445
aI1603273
aI1636042
aI928034
aI2282445
aI947921
aI751317
aI1834617
aI1570521
aI1341147
aI161500
aI1472221
aI1832673
aI259811
aI502054
aI2178909
aI1537768
aI915177
aI2160362
aI1838963
aI718574
aI1079025
aI128754
aI521972
aI2127605
aI2291446
aI1701624
aI1636092
aI111279
aI915199
aI1523328
aI1943851
aI751364
aI718599
aI878892
aI1177354
aI718603
aI1799948
aI474754
aI1701647
aI1799953
aI587540
aI522007
aI688427
aI63258
aI185306
aI2129541
aI1373984
aI1144610
aI554788
aI194341
aI2304305
aI2127656
aI1439530
aI227115
aI784173
aI1201117
aI665907
aI256308
aI1767226
aI227131
aI456512
aI1996616
aI2127689
aI1102818
aI2208373
aI849746
aI30548
aI2226007
aI2128766
aI1374041
aI1111899
aI1767260
aI387386
aI2160478
aI1013599
aI987399
aI718694
aI1603433
aI2258794
aI882539
aI63341
aI1210223
aI718705
aI587635
aI1255742
aI2094968
aI1517887
aI1667174
aI653182
aI784255
aI882561
aI2160515
aI423812
aI2258822
aI2291591
aI2291592
aI2226060
aI522125
aI1800993
aI1669011
aI2094996
aI1920317
aI1801881
aI817049
aI980890
aI1987567
aI817052
aI1570717
aI1439646
aI902293
aI1275811
aI1046436
aI1210277
aI489385
aI960839
aI685996
aI2095021
aI616776
aI325555
aI1013684
aI817081
aI686010
aI96187
aI2127804
aI649546
aI1308607
aI1669058
aI378169
aI1800134
aI1162913
aI1703447
aI2226123
aI2160591
aI1217528
aI1669074
aI1965731
aI1406934
aI1112023
aI587736
aI1734617
aI1734619
aI1341405
aI784352
aI849892
aI1767398
aI1632593
aI1570792
aI1964010
aI620523
aI2160620
aI2324461
aI1538032
aI2324466
aI1767411
aI948214
aI260087
aI2127864
aI1996796
aI1734654
aI2193408
aI686081
aI1670827
aI1865735
aI344729
aI1222999
aI2324495
aI718864
aI1275923
aI1472532
aI456726
aI13026
aI751642
aI784411
aI2226204
aI1112096
aI1359536
aI1209996
aI161828
aI1439782
aI391209
aI1115068
aI1243180
aI260144
aI1701937
aI1505330
aI489523
aI2258996
aI108894
aI587830
aI522296
aI1898555
aI1177660
aI1084517
aI1898562
aI169059
aI522308
aI1013829
aI2167820
aI129098
aI2160716
aI1931341
aI1472591
aI260183
aI784475
aI981085
aI587872
aI1439841
aI1669218
aI227430
aI63591
aI2193512
aI948329
aI817258
aI653420
aI391279
aI456817
aI623203
aI2029688
aI1487146
aI136327
aI686205
aI1439875
aI1964164
aI817285
aI1112200
aI1996938
aI660503
aI1228482
aI1865871
aI948369
aI1296199
aI2291859
aI1800340
aI325781
aI587926
aI1865880
aI194713
aI948378
aI30875
aI1668096
aI948382
aI456863
aI784544
aI260257
aI161955
aI522404
aI1333776
aI2317717
aI2226344
aI424105
aI1364941
aI2324651
aI1833135
aI1833137
aI1734835
aI489657
aI751802
aI1996987
aI17396
aI686270
aI686271
aI1767616
aI129218
aI321910
aI850118
aI523980
aI2107767
aI37922
aI882894
aI1551967
aI1943929
aI1997016
aI1407193
aI1636570
aI948444
aI1728289
aI522463
aI2211536
aI1734882
aI1112291
aI1177829
aI261639
aI1909417
aI456941
aI1505518
aI1194727
aI868051
aI1833204
aI365609
aI686328
aI489721
aI1864717
aI1931515
aI1571070
aI802517
aI1571074
aI96515
aI272429
aI784646
aI1243399
aI1865993
aI1669387
aI2095372
aI1374477
aI1702159
aI485763
aI1800468
aI1243416
aI1943940
aI1145115
aI2169577
aI1780101
aI1734944
aI1734945
aI751906
aI1603877
aI2053169
aI1967249
aI162091
aI948524
aI2331698
aI156237
aI850224
aI1898801
aI948530
aI162099
aI1091977
aI1594420
aI522554
aI63804
aI1997117
aI1440062
aI775221
aI457025
aI1833282
aI2091403
aI489797
aI457031
aI653644
aI2160973
aI883023
aI1702225
aI96595
aI2331705
aI588123
aI1210716
aI152634
aI917221
aI2324836
aI1998566
aI96614
aI1898855
aI1702252
aI1341805
aI1192549
aI1800560
aI1571187
aI129397
aI2162409
aI358778
aI424315
aI1309055
aI1603968
aI1035028
aI424322
aI2195179
aI389478
aI883078
aI948615
aI326026
aI1796503
aI1341836
aI1053762
aI2062734
aI1441517
aI63889
aI719251
aI1507054
aI194966
aI2128279
aI1341849
aI1243547
aI1472924
aI915869
aI431173
aI1472929
aI260514
aI1517979
aI162212
aI391589
aI752040
aI1538475
aI1334398
aI358830
aI2025885
aI2161075
aI502174
aI817590
aI522680
aI752058
aI1407419
aI195007
aI1276352
aI498593
aI1964484
aI1856958
aI489927
aI817608
aI686541
aI260565
aI1195769
aI653787
aI719324
aI1145309
aI948702
aI829861
aI1571296
aI260579
aI993702
aI2292198
aI1964519
aI555496
aI588265
aI293354
aI883181
aI2128373
aI1976745
aI1407484
aI2324992
aI1341954
aI895403
aI177803
aI129541
aI1266751
aI1571338
aI1473035
aI1931791
aI1112592
aI1014293
aI5209
aI424473
aI2102362
aI1931807
aI1571363
aI752164
aI2193959
aI2259499
aI2128430
aI267357
aI1178160
aI1122319
aI227891
aI1374774
aI1604155
aI621116
aI1997373
aI1079870
aI1374784
aI2193986
aI2030147
aI922721
aI1899080
aI784971
aI1768012
aI1604176
aI1669714
aI326227
aI653908
aI391765
aI1706479
aI326234
aI522844
aI1833566
aI720656
aI2259555
aI933649
aI719465
aI1869058
aI326251
aI457324
aI1792679
aI359022
aI1866351
aI1243764
aI1014389
aI709737
aI1632703
aI1604221
aI129662
aI76332
aI1866369
aI1473155
aI424583
aI260744
aI424585
aI916106
aI2129687
aI1649090
aI2233453
aI555666
aI96915
aI1112724
aI457366
aI851737
aI1079961
aI588444
aI868122
aI1178274
aI1604261
aI1315953
aI1047208
aI1833641
aI621228
aI1309358
aI916144
aI326321
aI1033066
aI1687326
aI1735352
aI463988
aI1440442
aI2293535
aI522941
aI31598
aI1669830
aI1145543
aI2004087
aI1112782
aI1735375
aI1479800
aI666062
aI382073
aI835365
aI426588
aI1342177
aI1840251
aI1768164
aI1081126
aI228070
aI1698257
aI1669865
aI916205
aI1905789
aI981744
aI2292465
aI64242
aI359156
aI1145589
aI2226935
aI1637112
aI686841
aI1866490
aI4574
aI453077
aI1800970
aI817931
aI949008
aI1538833
aI1506066
aI169083
aI2226965
aI1737037
aI1583577
aI1800984
aI1538842
aI2063131
aI588573
aI850718
aI2118789
aI686880
aI1997601
aI555811
aI359204
aI2195249
aI1473320
aI916265
aI1178411
aI1048370
aI1964847
aI1506097
aI129843
aI2157022
aI588599
aI523065
aI31546
aI1375036
aI119946
aI1702719
aI64336
aI326466
aI588611
aI555844
aI1571653
aI1702729
aI305634
aI1506126
aI2259792
aI360248
aI637180
aI97113
aI1276762
aI2227035
aI1702748
aI162655
aI1506146
aI1801061
aI457575
aI1309545
aI1276778
aI174567
aI621420
aI1899374
aI1484989
aI1899378
aI349331
aI97142
aI1276792
aI588665
aI1702778
aI1670012
aI1518058
aI1473406
aI1343296
aI681918
aI1702792
aI2194314
aI2325396
aI392087
aI1080216
aI1539908
aI1899418
aI1178524
aI103649
aI1758363
aI2161573
aI588711
aI424872
aI228265
aI1047466
aI457643
aI879090
aI359342
aI159268
aI2161588
aI1440694
aI326584
aI621498
aI873631
aI2063292
aI2128830
aI567797
aI1637312
aI1768385
aI1801154
aI1969999
aI1080262
aI1866695
aI1113035
aI2325458
aI2053283
aI1812985
aI1940626
aI1211355
aI2280658
aI785373
aI1798147
aI588769
aI359394
aI1768421
aI1032017
aI1670121
aI1473514
aI1440747
aI97263
aI883697
aI490484
aI1735669
aI857257
aI2319708
aI982009
aI293882
aI633343
aI1217468
aI1954986
aI1145854
aI654336
aI2107904
aI283819
aI982021
aI1342470
aI2331820
aI949258
aI64523
aI97292
aI1506317
aI457745
aI2063378
aI207363
aI1874528
aI2128926
aI723386
aI457762
aI1785691
aI982053
aI916520
aI1933148
aI785450
aI1894919
aI1408044
aI1866797
aI1571887
aI1600008
aI719922
aI2030646
aI1473591
aI1234100
aI2309983
aI1066457
aI2260031
aI1735744
aI2128962
aI1276998
aI1015649
aI2063432
aI1932361
aI1637450
aI1376028
aI2292815
aI851029
aI1440857
aI162907
aI1440860
aI677050
aI162910
aI155806
aI2128994
aI1571948
aI31854
aI1899631
aI130163
aI425077
aI818294
aI1589097
aI31866
aI1571964
aI360298
aI1211518
aI785535
aI1539200
aI1905856
aI1866882
aI1440899
aI2060024
aI818318
aI1834128
aI261265
aI982162
aI2260115
aI32622
aI1506455
aI1277083
aI457884
aI490654
aI1905862
aI752807
aI64682
aI2260140
aI785582
aI2082939
aI2194612
aI2194613
aI425142
aI294073
aI1572030
aI1899714
aI982211
aI1113285
aI2129094
aI1670343
aI1408201
aI195786
aI97483
aI1966189
aI2260176
aI589009
aI1834195
aI1178836
aI2228089
aI1080536
aI294106
aI228571
aI1199125
aI1998046
aI1015007
aI1506528
aI1211620
aI43558
aI1960487
aI1932524
aI2260206
aI490735
aI76328
aI1408245
aI1669403
aI1244409
aI802687
aI2227454
aI32002
aI1309956
aI1742038
aI261382
aI720135
aI2096392
aI240172
aI1348823
aI818444
aI1857959
aI1982339
aI1419822
aI1375511
aI2194712
aI720155
aI851228
aI1458053
aI1146147
aI951441
aI1670441
aI1670442
aI1834284
aI1037533
aI523570
aI890078
aI1518132
aI2217183
aI32060
aI2129213
aI633397
aI1447136
aI294210
aI1637699
aI294213
aI1637703
aI1375561
aI1211722
aI2260299
aI720204
aI848876
aI1473871
aI785744
aI1965393
aI2030931
aI523604
aI343950
aI490838
aI1867096
aI556377
aI687450
aI1556367
aI1015132
aI1703261
aI2260318
aI1146208
aI1473890
aI1146212
aI447718
aI2293094
aI523623
aI228712
aI782318
aI261482
aI447719
aI1135418
aI490862
aI2030959
aI70888
aI1244534
aI2260343
aI1818516
aI458110
aI294272
aI1015170
aI300267
aI916870
aI383198
aI1670537
aI392586
aI1752983
aI1325757
aI2325903
aI458128
aI261521
aI1949396
aI785813
aI2325911
aI1441176
aI1834395
aI1310109
aI1146270
aI1637791
aI621984
aI1047969
aI556456
aI2260393
aI1113515
aI2096557
aI1642419
aI294322
aI982453
aI1632841
aI2162105
aI566277
aI392638
aI1342914
aI2107979
aI2293188
aI261574
aI1637834
aI1119479
aI1539533
aI359890
aI2162131
aI2031060
aI1867226
aI2140751
aI683029
aI2162144
aI1043024
aI1015718
aI1834471
aI916969
aI1292977
aI1113582
aI1998319
aI1375728
aI218366
aI2235708
aI633428
aI556538
aI785915
aI1050367
aI360157
aI191061
aI890112
aI2162178
aI1458091
aI420438
aI589318
aI1310215
aI2129416
aI1240598
aI517366
aI1146380
aI1080848
aI1809077
aI861329
aI1103107
aI1965589
aI2142963
aI130586
aI1113628
aI425501
aI818718
aI1867295
aI261664
aI196130
aI1632859
aI163364
aI556581
aI1539623
aI2096684
aI785965
aI654894
aI1665049
aI1944158
aI1506871
aI1638862
aI65460
aI1375802
aI327229
aI687678
aI228927
aI982593
aI1015363
aI392774
aI97863
aI32329
aI568464
aI785995
aI228941
aI2162257
aI1506898
aI2326099
aI2331918
aI1375830
aI959089
aI228952
aI65113
aI9806
aI458333
aI1637982
aI982623
aI939280
aI686307
aI818794
aI1834603
aI1801836
aI1643883
aI1572462
aI491119
aI1933469
aI2337384
aI1638002
aI330599
aI1621950
aI1179254
aI818807
aI2195065
aI523898
aI1605245
aI1856789
aI458370
aI1244803
aI1987862
aI1556417
aI196233
aI1801867
aI92781
aI892532
aI327321
aI1015452
aI1801885
aI97950
aI160829
aI2227874
aI1185051
aI999366
aI1081000
aI1670826
aI425643
aI1113774
aI2096816
aI687797
aI1802185
aI458424
aI556729
aI1900218
aI2227899
aI589501
aI1081022
aI2091637
aI1474246
aI753351
aI1731191
aI491212
aI708133
aI917198
aI2064333
aI2133149
aI491219
aI523988
aI1277655
aI2260696
aI2004260
aI1601769
aI2255482
aI1545509
aI114640
aI130786
aI39271
aI360165
aI360166
aI1113831
aI1769192
aI589545
aI1474283
aI2195181
aI1015534
aI2162415
aI392945
aI32498
aI2064115
aI1277686
aI491255
aI261880
aI638933
aI2031360
aI1370752
aI655108
aI1408774
aI1081095
aI458504
aI1998602
aI2031575
aI1343244
aI392973
aI950031
aI1310480
aI1867537
aI130837
aI229143
aI289412
aI261914
aI1769244
aI1649285
aI261920
aI1660208
aI229156
aI392997
aI261926
aI1605417
aI1996317
aI818987
aI1474348
aI556846
aI2228016
aI666248
aI1670962
aI1343283
aI1239689
aI32568
aI2003308
aI1818591
aI196414
aI1769280
aI1884128
aI1933122
aI1670980
aI1474373
aI1474376
aI1703754
aI1900365
aI1998676
aI2162520
aI1867609
aI822269
aI592478
aI65374
aI2047973
aI687968
aI1933153
aI556900
aI1638245
aI65382
aI327527
aI524137
aI982890
aI2146279
aI130925
aI1802094
aI1572720
aI556913
aI32626
aI294774
aI2326391
aI1763988
aI2086207
aI917372
aI1376126
aI2195328
aI737259
aI256662
aI163719
aI1408907
aI1376142
aI1474447
aI1408912
aI2276283
aI1605522
aI1408915
aI2031508
aI1441686
aI295257
aI163737
aI2260890
aI1572765
aI267589
aI1572768
aI2195362
aI2162596
aI1781367
aI294824
aI2031531
aI622509
aI1441710
aI1206941
aI1933233
aI2293684
aI109214
aI819128
aI1376195
aI1834998
aI2331980
aI1572810
aI720845
aI2282829
aI2228176
aI1605586
aI327635
aI1769428
aI1933269
aI98262
aI1359865
aI655320
aI174756
aI655322
aI1212384
aI2217296
aI1212387
aI819173
aI1310697
aI98283
aI2168146
aI693958
aI1398099
aI131062
aI851961
aI2293755
aI292639
aI393213
aI688126
aI88599
atp2
Rp3
.